(imatplotlib.font_manager
FontManager
p1
(dp2
S'afm_lookup_cache'
p3
(dp4
sS'ttflist'
p5
(lp6
ccopy_reg
_reconstructor
p7
(cmatplotlib.font_manager
FontEntry
p8
c__builtin__
object
p9
NtRp10
(dp11
S'style'
p12
S'normal'
p13
sS'name'
p14
S'cmtt10'
p15
sS'weight'
p16
I400
sS'stretch'
p17
g13
sS'variant'
p18
g13
sS'fname'
p19
S'E:\\Programmatuur\\WinPython_versions\\WinPython-PyGaze-0.5.1\\python-2.7.3\\lib\\site-packages\\matplotlib\\mpl-data\\fonts\\ttf\\cmtt10.ttf'
p20
sS'size'
p21
S'scalable'
p22
sbag7
(g8
g9
NtRp23
(dp24
g12
S'italic'
p25
sg14
S'STIXNonUnicode'
p26
sg16
I400
sg17
g13
sg18
g13
sg19
S'E:\\Programmatuur\\WinPython_versions\\WinPython-PyGaze-0.5.1\\python-2.7.3\\lib\\site-packages\\matplotlib\\mpl-data\\fonts\\ttf\\STIXNonUniIta.ttf'
p27
sg21
g22
sbag7
(g8
g9
NtRp28
(dp29
g12
S'oblique'
p30
sg14
S'Bitstream Vera Sans'
p31
sg16
I700
sg17
g13
sg18
g13
sg19
S'E:\\Programmatuur\\WinPython_versions\\WinPython-PyGaze-0.5.1\\python-2.7.3\\lib\\site-packages\\matplotlib\\mpl-data\\fonts\\ttf\\VeraBI.ttf'
p32
sg21
g22
sbag7
(g8
g9
NtRp33
(dp34
g12
g13
sg14
S'cmex10'
p35
sg16
I400
sg17
g13
sg18
g13
sg19
S'E:\\Programmatuur\\WinPython_versions\\WinPython-PyGaze-0.5.1\\python-2.7.3\\lib\\site-packages\\matplotlib\\mpl-data\\fonts\\ttf\\cmex10.ttf'
p36
sg21
g22
sbag7
(g8
g9
NtRp37
(dp38
g12
g13
sg14
S'STIXSizeTwoSym'
p39
sg16
I400
sg17
g13
sg18
g13
sg19
S'E:\\Programmatuur\\WinPython_versions\\WinPython-PyGaze-0.5.1\\python-2.7.3\\lib\\site-packages\\matplotlib\\mpl-data\\fonts\\ttf\\STIXSizTwoSymReg.ttf'
p40
sg21
g22
sbag7
(g8
g9
NtRp41
(dp42
g12
g13
sg14
S'Bitstream Vera Sans'
p43
sg16
I700
sg17
g13
sg18
g13
sg19
S'E:\\Programmatuur\\WinPython_versions\\WinPython-PyGaze-0.5.1\\python-2.7.3\\lib\\site-packages\\matplotlib\\mpl-data\\fonts\\ttf\\VeraBd.ttf'
p44
sg21
g22
sbag7
(g8
g9
NtRp45
(dp46
g12
g13
sg14
S'STIXSizeFiveSym'
p47
sg16
I400
sg17
g13
sg18
g13
sg19
S'E:\\Programmatuur\\WinPython_versions\\WinPython-PyGaze-0.5.1\\python-2.7.3\\lib\\site-packages\\matplotlib\\mpl-data\\fonts\\ttf\\STIXSizFiveSymReg.ttf'
p48
sg21
g22
sbag7
(g8
g9
NtRp49
(dp50
g12
g13
sg14
S'STIXGeneral'
p51
sg16
I700
sg17
g13
sg18
g13
sg19
S'E:\\Programmatuur\\WinPython_versions\\WinPython-PyGaze-0.5.1\\python-2.7.3\\lib\\site-packages\\matplotlib\\mpl-data\\fonts\\ttf\\STIXGeneralBol.ttf'
p52
sg21
g22
sbag7
(g8
g9
NtRp53
(dp54
g12
g13
sg14
S'STIXSizeFourSym'
p55
sg16
I400
sg17
g13
sg18
g13
sg19
S'E:\\Programmatuur\\WinPython_versions\\WinPython-PyGaze-0.5.1\\python-2.7.3\\lib\\site-packages\\matplotlib\\mpl-data\\fonts\\ttf\\STIXSizFourSymReg.ttf'
p56
sg21
g22
sbag7
(g8
g9
NtRp57
(dp58
g12
g13
sg14
S'STIXGeneral'
p59
sg16
I400
sg17
g13
sg18
g13
sg19
S'E:\\Programmatuur\\WinPython_versions\\WinPython-PyGaze-0.5.1\\python-2.7.3\\lib\\site-packages\\matplotlib\\mpl-data\\fonts\\ttf\\STIXGeneral.ttf'
p60
sg21
g22
sbag7
(g8
g9
NtRp61
(dp62
g12
g13
sg14
S'cmss10'
p63
sg16
I400
sg17
g13
sg18
g13
sg19
S'E:\\Programmatuur\\WinPython_versions\\WinPython-PyGaze-0.5.1\\python-2.7.3\\lib\\site-packages\\matplotlib\\mpl-data\\fonts\\ttf\\cmss10.ttf'
p64
sg21
g22
sbag7
(g8
g9
NtRp65
(dp66
g12
g25
sg14
S'STIXGeneral'
p67
sg16
I700
sg17
g13
sg18
g13
sg19
S'E:\\Programmatuur\\WinPython_versions\\WinPython-PyGaze-0.5.1\\python-2.7.3\\lib\\site-packages\\matplotlib\\mpl-data\\fonts\\ttf\\STIXGeneralBolIta.ttf'
p68
sg21
g22
sbag7
(g8
g9
NtRp69
(dp70
g12
g30
sg14
S'Bitstream Vera Sans'
p71
sg16
I400
sg17
g13
sg18
g13
sg19
S'E:\\Programmatuur\\WinPython_versions\\WinPython-PyGaze-0.5.1\\python-2.7.3\\lib\\site-packages\\matplotlib\\mpl-data\\fonts\\ttf\\VeraIt.ttf'
p72
sg21
g22
sbag7
(g8
g9
NtRp73
(dp74
g12
g30
sg14
S'Bitstream Vera Sans Mono'
p75
sg16
I400
sg17
g13
sg18
g13
sg19
S'E:\\Programmatuur\\WinPython_versions\\WinPython-PyGaze-0.5.1\\python-2.7.3\\lib\\site-packages\\matplotlib\\mpl-data\\fonts\\ttf\\VeraMoIt.ttf'
p76
sg21
g22
sbag7
(g8
g9
NtRp77
(dp78
g12
g13
sg14
S'cmr10'
p79
sg16
I400
sg17
g13
sg18
g13
sg19
S'E:\\Programmatuur\\WinPython_versions\\WinPython-PyGaze-0.5.1\\python-2.7.3\\lib\\site-packages\\matplotlib\\mpl-data\\fonts\\ttf\\cmr10.ttf'
p80
sg21
g22
sbag7
(g8
g9
NtRp81
(dp82
g12
g13
sg14
S'STIXNonUnicode'
p83
sg16
I400
sg17
g13
sg18
g13
sg19
S'E:\\Programmatuur\\WinPython_versions\\WinPython-PyGaze-0.5.1\\python-2.7.3\\lib\\site-packages\\matplotlib\\mpl-data\\fonts\\ttf\\STIXNonUni.ttf'
p84
sg21
g22
sbag7
(g8
g9
NtRp85
(dp86
g12
g13
sg14
S'cmsy10'
p87
sg16
I400
sg17
g13
sg18
g13
sg19
S'E:\\Programmatuur\\WinPython_versions\\WinPython-PyGaze-0.5.1\\python-2.7.3\\lib\\site-packages\\matplotlib\\mpl-data\\fonts\\ttf\\cmsy10.ttf'
p88
sg21
g22
sbag7
(g8
g9
NtRp89
(dp90
g12
g30
sg14
S'Bitstream Vera Sans Mono'
p91
sg16
I700
sg17
g13
sg18
g13
sg19
S'E:\\Programmatuur\\WinPython_versions\\WinPython-PyGaze-0.5.1\\python-2.7.3\\lib\\site-packages\\matplotlib\\mpl-data\\fonts\\ttf\\VeraMoBI.ttf'
p92
sg21
g22
sbag7
(g8
g9
NtRp93
(dp94
g12
g13
sg14
S'STIXSizeThreeSym'
p95
sg16
I400
sg17
g13
sg18
g13
sg19
S'E:\\Programmatuur\\WinPython_versions\\WinPython-PyGaze-0.5.1\\python-2.7.3\\lib\\site-packages\\matplotlib\\mpl-data\\fonts\\ttf\\STIXSizThreeSymReg.ttf'
p96
sg21
g22
sbag7
(g8
g9
NtRp97
(dp98
g12
g13
sg14
S'STIXSizeFourSym'
p99
sg16
I700
sg17
g13
sg18
g13
sg19
S'E:\\Programmatuur\\WinPython_versions\\WinPython-PyGaze-0.5.1\\python-2.7.3\\lib\\site-packages\\matplotlib\\mpl-data\\fonts\\ttf\\STIXSizFourSymBol.ttf'
p100
sg21
g22
sbag7
(g8
g9
NtRp101
(dp102
g12
g25
sg14
S'STIXNonUnicode'
p103
sg16
I700
sg17
g13
sg18
g13
sg19
S'E:\\Programmatuur\\WinPython_versions\\WinPython-PyGaze-0.5.1\\python-2.7.3\\lib\\site-packages\\matplotlib\\mpl-data\\fonts\\ttf\\STIXNonUniBolIta.ttf'
p104
sg21
g22
sbag7
(g8
g9
NtRp105
(dp106
g12
g13
sg14
S'Bitstream Vera Sans Mono'
p107
sg16
I400
sg17
g13
sg18
g13
sg19
S'E:\\Programmatuur\\WinPython_versions\\WinPython-PyGaze-0.5.1\\python-2.7.3\\lib\\site-packages\\matplotlib\\mpl-data\\fonts\\ttf\\VeraMono.ttf'
p108
sg21
g22
sbag7
(g8
g9
NtRp109
(dp110
g12
g13
sg14
S'Bitstream Vera Serif'
p111
sg16
I400
sg17
g13
sg18
g13
sg19
S'E:\\Programmatuur\\WinPython_versions\\WinPython-PyGaze-0.5.1\\python-2.7.3\\lib\\site-packages\\matplotlib\\mpl-data\\fonts\\ttf\\VeraSe.ttf'
p112
sg21
g22
sbag7
(g8
g9
NtRp113
(dp114
g12
g13
sg14
S'cmmi10'
p115
sg16
I400
sg17
g13
sg18
g13
sg19
S'E:\\Programmatuur\\WinPython_versions\\WinPython-PyGaze-0.5.1\\python-2.7.3\\lib\\site-packages\\matplotlib\\mpl-data\\fonts\\ttf\\cmmi10.ttf'
p116
sg21
g22
sbag7
(g8
g9
NtRp117
(dp118
g12
g13
sg14
S'Bitstream Vera Sans'
p119
sg16
I400
sg17
g13
sg18
g13
sg19
S'E:\\Programmatuur\\WinPython_versions\\WinPython-PyGaze-0.5.1\\python-2.7.3\\lib\\site-packages\\matplotlib\\mpl-data\\fonts\\ttf\\Vera.ttf'
p120
sg21
g22
sbag7
(g8
g9
NtRp121
(dp122
g12
g13
sg14
S'STIXSizeTwoSym'
p123
sg16
I700
sg17
g13
sg18
g13
sg19
S'E:\\Programmatuur\\WinPython_versions\\WinPython-PyGaze-0.5.1\\python-2.7.3\\lib\\site-packages\\matplotlib\\mpl-data\\fonts\\ttf\\STIXSizTwoSymBol.ttf'
p124
sg21
g22
sbag7
(g8
g9
NtRp125
(dp126
g12
g13
sg14
S'STIXSizeThreeSym'
p127
sg16
I700
sg17
g13
sg18
g13
sg19
S'E:\\Programmatuur\\WinPython_versions\\WinPython-PyGaze-0.5.1\\python-2.7.3\\lib\\site-packages\\matplotlib\\mpl-data\\fonts\\ttf\\STIXSizThreeSymBol.ttf'
p128
sg21
g22
sbag7
(g8
g9
NtRp129
(dp130
g12
g25
sg14
S'STIXGeneral'
p131
sg16
I400
sg17
g13
sg18
g13
sg19
S'E:\\Programmatuur\\WinPython_versions\\WinPython-PyGaze-0.5.1\\python-2.7.3\\lib\\site-packages\\matplotlib\\mpl-data\\fonts\\ttf\\STIXGeneralItalic.ttf'
p132
sg21
g22
sbag7
(g8
g9
NtRp133
(dp134
g12
g13
sg14
S'STIXSizeOneSym'
p135
sg16
I400
sg17
g13
sg18
g13
sg19
S'E:\\Programmatuur\\WinPython_versions\\WinPython-PyGaze-0.5.1\\python-2.7.3\\lib\\site-packages\\matplotlib\\mpl-data\\fonts\\ttf\\STIXSizOneSymReg.ttf'
p136
sg21
g22
sbag7
(g8
g9
NtRp137
(dp138
g12
g13
sg14
S'STIXSizeOneSym'
p139
sg16
I700
sg17
g13
sg18
g13
sg19
S'E:\\Programmatuur\\WinPython_versions\\WinPython-PyGaze-0.5.1\\python-2.7.3\\lib\\site-packages\\matplotlib\\mpl-data\\fonts\\ttf\\STIXSizOneSymBol.ttf'
p140
sg21
g22
sbag7
(g8
g9
NtRp141
(dp142
g12
g13
sg14
S'STIXNonUnicode'
p143
sg16
I700
sg17
g13
sg18
g13
sg19
S'E:\\Programmatuur\\WinPython_versions\\WinPython-PyGaze-0.5.1\\python-2.7.3\\lib\\site-packages\\matplotlib\\mpl-data\\fonts\\ttf\\STIXNonUniBol.ttf'
p144
sg21
g22
sbag7
(g8
g9
NtRp145
(dp146
g12
g13
sg14
S'cmb10'
p147
sg16
I400
sg17
g13
sg18
g13
sg19
S'E:\\Programmatuur\\WinPython_versions\\WinPython-PyGaze-0.5.1\\python-2.7.3\\lib\\site-packages\\matplotlib\\mpl-data\\fonts\\ttf\\cmb10.ttf'
p148
sg21
g22
sbag7
(g8
g9
NtRp149
(dp150
g12
g13
sg14
S'Bitstream Vera Sans Mono'
p151
sg16
I700
sg17
g13
sg18
g13
sg19
S'E:\\Programmatuur\\WinPython_versions\\WinPython-PyGaze-0.5.1\\python-2.7.3\\lib\\site-packages\\matplotlib\\mpl-data\\fonts\\ttf\\VeraMoBd.ttf'
p152
sg21
g22
sbag7
(g8
g9
NtRp153
(dp154
g12
g13
sg14
S'Bitstream Vera Serif'
p155
sg16
I700
sg17
g13
sg18
g13
sg19
S'E:\\Programmatuur\\WinPython_versions\\WinPython-PyGaze-0.5.1\\python-2.7.3\\lib\\site-packages\\matplotlib\\mpl-data\\fonts\\ttf\\VeraSeBd.ttf'
p156
sg21
g22
sbag7
(g8
g9
NtRp157
(dp158
g12
g13
sg14
S'Courier New'
p159
sg16
I400
sg17
g13
sg18
g13
sg19
S'C:\\Windows\\Fonts\\cour.ttf'
p160
sg21
g22
sbag7
(g8
g9
NtRp161
(dp162
g12
g25
sg14
S'Browallia New'
p163
sg16
I400
sg17
g13
sg18
g13
sg19
S'c:\\windows\\fonts\\browai.ttf'
p164
sg21
g22
sbag7
(g8
g9
NtRp165
(dp166
g12
g13
sg14
S'Cambria'
p167
sg16
I700
sg17
g13
sg18
g13
sg19
S'c:\\windows\\fonts\\cambriab.ttf'
p168
sg21
g22
sbag7
(g8
g9
NtRp169
(dp170
g12
g25
sg14
S'Verdana'
p171
sg16
I700
sg17
g13
sg18
g13
sg19
S'C:\\Windows\\Fonts\\verdanaz.ttf'
p172
sg21
g22
sbag7
(g8
g9
NtRp173
(dp174
g12
g25
sg14
S'Palatino Linotype'
p175
sg16
I700
sg17
g13
sg18
g13
sg19
S'C:\\Windows\\Fonts\\palabi.ttf'
p176
sg21
g22
sbag7
(g8
g9
NtRp177
(dp178
g12
g25
sg14
S'JasmineUPC'
p179
sg16
I400
sg17
g13
sg18
g13
sg19
S'c:\\windows\\fonts\\upcji.ttf'
p180
sg21
g22
sbag7
(g8
g9
NtRp181
(dp182
g12
g13
sg14
S'Microsoft Tai Le'
p183
sg16
I700
sg17
g13
sg18
g13
sg19
S'C:\\Windows\\Fonts\\taileb.ttf'
p184
sg21
g22
sbag7
(g8
g9
NtRp185
(dp186
g12
g13
sg14
S'Trebuchet MS'
p187
sg16
I700
sg17
g13
sg18
g13
sg19
S'c:\\windows\\fonts\\trebucbd.ttf'
p188
sg21
g22
sbag7
(g8
g9
NtRp189
(dp190
g12
g13
sg14
S'Tahoma'
p191
sg16
I700
sg17
g13
sg18
g13
sg19
S'C:\\Windows\\Fonts\\tahomabd.ttf'
p192
sg21
g22
sbag7
(g8
g9
NtRp193
(dp194
g12
g13
sg14
S'Raavi'
p195
sg16
I400
sg17
g13
sg18
g13
sg19
S'C:\\Windows\\Fonts\\raavi.ttf'
p196
sg21
g22
sbag7
(g8
g9
NtRp197
(dp198
g12
g13
sg14
S'BrowalliaUPC'
p199
sg16
I400
sg17
g13
sg18
g13
sg19
S'c:\\windows\\fonts\\browau.ttf'
p200
sg21
g22
sbag7
(g8
g9
NtRp201
(dp202
g12
g13
sg14
S'KaiTi'
p203
sg16
I400
sg17
g13
sg18
g13
sg19
S'c:\\windows\\fonts\\simkai.ttf'
p204
sg21
g22
sbag7
(g8
g9
NtRp205
(dp206
g12
g13
sg14
S'Ubuntu'
p207
sg16
I400
sg17
g13
sg18
g13
sg19
S'C:\\Windows\\Fonts\\Ubuntu-R.ttf'
p208
sg21
g22
sbag7
(g8
g9
NtRp209
(dp210
g12
g25
sg14
S'Trebuchet MS'
p211
sg16
I700
sg17
g13
sg18
g13
sg19
S'c:\\windows\\fonts\\trebucbi.ttf'
p212
sg21
g22
sbag7
(g8
g9
NtRp213
(dp214
g12
g25
sg14
S'Segoe UI'
p215
sg16
I700
sg17
g13
sg18
g13
sg19
S'c:\\windows\\fonts\\segoeuiz.ttf'
p216
sg21
g22
sbag7
(g8
g9
NtRp217
(dp218
g12
g25
sg14
S'BrowalliaUPC'
p219
sg16
I700
sg17
g13
sg18
g13
sg19
S'c:\\windows\\fonts\\browauz.ttf'
p220
sg21
g22
sbag7
(g8
g9
NtRp221
(dp222
g12
g13
sg14
S'Malgun Gothic'
p223
sg16
I700
sg17
g13
sg18
g13
sg19
S'C:\\Windows\\Fonts\\malgunbd.ttf'
p224
sg21
g22
sbag7
(g8
g9
NtRp225
(dp226
g12
g13
sg14
S'DokChampa'
p227
sg16
I400
sg17
g13
sg18
g13
sg19
S'C:\\Windows\\Fonts\\dokchamp.ttf'
p228
sg21
g22
sbag7
(g8
g9
NtRp229
(dp230
g12
g25
sg14
S'Arial'
p231
sg16
I400
sg17
g13
sg18
g13
sg19
S'c:\\windows\\fonts\\ariali.ttf'
p232
sg21
g22
sbag7
(g8
g9
NtRp233
(dp234
g12
g13
sg14
S'Khmer UI'
p235
sg16
I700
sg17
g13
sg18
g13
sg19
S'c:\\windows\\fonts\\khmeruib.ttf'
p236
sg21
g22
sbag7
(g8
g9
NtRp237
(dp238
g12
g30
sg14
S'DejaVu Sans'
p239
sg16
I700
sg17
S'condensed'
p240
sg18
g13
sg19
S'C:\\Windows\\Fonts\\DejaVuSansCondensed-BoldOblique.ttf'
p241
sg21
g22
sbag7
(g8
g9
NtRp242
(dp243
g12
g25
sg14
S'Gentium Book Basic'
p244
sg16
I700
sg17
g13
sg18
g13
sg19
S'c:\\windows\\fonts\\genbkbasbi.ttf'
p245
sg21
g22
sbag7
(g8
g9
NtRp246
(dp247
g12
g13
sg14
S'Simplified Arabic'
p248
sg16
I400
sg17
g13
sg18
g13
sg19
S'c:\\windows\\fonts\\simpo.ttf'
p249
sg21
g22
sbag7
(g8
g9
NtRp250
(dp251
g12
g13
sg14
S'Arabic Typesetting'
p252
sg16
I400
sg17
g13
sg18
g13
sg19
S'c:\\windows\\fonts\\arabtype.ttf'
p253
sg21
g22
sbag7
(g8
g9
NtRp254
(dp255
g12
g13
sg14
S'Kartika'
p256
sg16
I700
sg17
g13
sg18
g13
sg19
S'C:\\Windows\\Fonts\\kartikab.ttf'
p257
sg21
g22
sbag7
(g8
g9
NtRp258
(dp259
g12
g13
sg14
S'Khmer UI'
p260
sg16
I400
sg17
g13
sg18
g13
sg19
S'c:\\windows\\fonts\\khmerui.ttf'
p261
sg21
g22
sbag7
(g8
g9
NtRp262
(dp263
g12
g13
sg14
S'Segoe UI'
p264
sg16
I400
sg17
g13
sg18
g13
sg19
S'c:\\windows\\fonts\\seguisb.ttf'
p265
sg21
g22
sbag7
(g8
g9
NtRp266
(dp267
g12
g13
sg14
S'Kokila'
p268
sg16
I700
sg17
g13
sg18
g13
sg19
S'C:\\Windows\\Fonts\\kokilab.ttf'
p269
sg21
g22
sbag7
(g8
g9
NtRp270
(dp271
g12
g13
sg14
S'Calibri'
p272
sg16
I200
sg17
g13
sg18
g13
sg19
S'C:\\Windows\\Fonts\\calibril.ttf'
p273
sg21
g22
sbag7
(g8
g9
NtRp274
(dp275
g12
g13
sg14
S'Cordia New'
p276
sg16
I700
sg17
g13
sg18
g13
sg19
S'C:\\Windows\\Fonts\\cordiab.ttf'
p277
sg21
g22
sbag7
(g8
g9
NtRp278
(dp279
g12
g13
sg14
S'Gautami'
p280
sg16
I700
sg17
g13
sg18
g13
sg19
S'C:\\Windows\\Fonts\\gautamib.ttf'
p281
sg21
g22
sbag7
(g8
g9
NtRp282
(dp283
g12
g13
sg14
S'Euphemia'
p284
sg16
I400
sg17
g13
sg18
g13
sg19
S'C:\\Windows\\Fonts\\euphemia.ttf'
p285
sg21
g22
sbag7
(g8
g9
NtRp286
(dp287
g12
g25
sg14
S'Georgia'
p288
sg16
I400
sg17
g13
sg18
g13
sg19
S'C:\\Windows\\Fonts\\georgiai.ttf'
p289
sg21
g22
sbag7
(g8
g9
NtRp290
(dp291
g12
g13
sg14
S'Leelawadee'
p292
sg16
I700
sg17
g13
sg18
g13
sg19
S'C:\\Windows\\Fonts\\leelawdb.ttf'
p293
sg21
g22
sbag7
(g8
g9
NtRp294
(dp295
g12
g13
sg14
S'DejaVu Serif'
p296
sg16
I700
sg17
g13
sg18
g13
sg19
S'c:\\windows\\fonts\\dejavuserif-bold.ttf'
p297
sg21
g22
sbag7
(g8
g9
NtRp298
(dp299
g12
g13
sg14
S'Microsoft Himalaya'
p300
sg16
I400
sg17
g13
sg18
g13
sg19
S'C:\\Windows\\Fonts\\himalaya.ttf'
p301
sg21
g22
sbag7
(g8
g9
NtRp302
(dp303
g12
g13
sg14
S'Cordia New'
p304
sg16
I400
sg17
g13
sg18
g13
sg19
S'C:\\Windows\\Fonts\\cordia.ttf'
p305
sg21
g22
sbag7
(g8
g9
NtRp306
(dp307
g12
g13
sg14
S'DejaVu Sans'
p308
sg16
I700
sg17
g240
sg18
g13
sg19
S'c:\\windows\\fonts\\dejavusanscondensed-bold.ttf'
p309
sg21
g22
sbag7
(g8
g9
NtRp310
(dp311
g12
g13
sg14
S'Consolas'
p312
sg16
I400
sg17
g13
sg18
g13
sg19
S'c:\\windows\\fonts\\consola.ttf'
p313
sg21
g22
sbag7
(g8
g9
NtRp314
(dp315
g12
g25
sg14
S'Angsana New'
p316
sg16
I400
sg17
g13
sg18
g13
sg19
S'C:\\Windows\\Fonts\\angsai.ttf'
p317
sg21
g22
sbag7
(g8
g9
NtRp318
(dp319
g12
g13
sg14
S'FreesiaUPC'
p320
sg16
I700
sg17
g13
sg18
g13
sg19
S'C:\\Windows\\Fonts\\upcfb.ttf'
p321
sg21
g22
sbag7
(g8
g9
NtRp322
(dp323
g12
g13
sg14
S'Arial'
p324
sg16
I700
sg17
g13
sg18
g13
sg19
S'c:\\windows\\fonts\\arialbd.ttf'
p325
sg21
g22
sbag7
(g8
g9
NtRp326
(dp327
g12
g13
sg14
S'Sakkal Majalla'
p328
sg16
I400
sg17
g13
sg18
g13
sg19
S'C:\\Windows\\Fonts\\majalla.ttf'
p329
sg21
g22
sbag7
(g8
g9
NtRp330
(dp331
g12
g30
sg14
S'DejaVu Sans'
p332
sg16
I700
sg17
g13
sg18
g13
sg19
S'C:\\Windows\\Fonts\\DejaVuSans-BoldOblique.ttf'
p333
sg21
g22
sbag7
(g8
g9
NtRp334
(dp335
g12
g13
sg14
S'Gentium Book Basic'
p336
sg16
I700
sg17
g13
sg18
g13
sg19
S'C:\\Windows\\Fonts\\GenBkBasB.ttf'
p337
sg21
g22
sbag7
(g8
g9
NtRp338
(dp339
g12
g13
sg14
S'Microsoft YaHei'
p340
sg16
I400
sg17
g13
sg18
g13
sg19
S'c:\\windows\\fonts\\msyh.ttf'
p341
sg21
g22
sbag7
(g8
g9
NtRp342
(dp343
g12
g13
sg14
S'Tunga'
p344
sg16
I400
sg17
g13
sg18
g13
sg19
S'C:\\Windows\\Fonts\\tunga.ttf'
p345
sg21
g22
sbag7
(g8
g9
NtRp346
(dp347
g12
g25
sg14
S'Cambria'
p348
sg16
I700
sg17
g13
sg18
g13
sg19
S'C:\\Windows\\Fonts\\cambriaz.ttf'
p349
sg21
g22
sbag7
(g8
g9
NtRp350
(dp351
g12
g25
sg14
S'IrisUPC'
p352
sg16
I700
sg17
g13
sg18
g13
sg19
S'C:\\Windows\\Fonts\\upcibi.ttf'
p353
sg21
g22
sbag7
(g8
g9
NtRp354
(dp355
g12
g13
sg14
S'Microsoft JhengHei'
p356
sg16
I700
sg17
g13
sg18
g13
sg19
S'c:\\windows\\fonts\\msjhbd.ttf'
p357
sg21
g22
sbag7
(g8
g9
NtRp358
(dp359
g12
g13
sg14
S'DejaVu Sans Mono'
p360
sg16
I400
sg17
g13
sg18
g13
sg19
S'C:\\Windows\\Fonts\\DejaVuSansMono.ttf'
p361
sg21
g22
sbag7
(g8
g9
NtRp362
(dp363
g12
g13
sg14
S'Segoe UI'
p364
sg16
I400
sg17
g13
sg18
g13
sg19
S'c:\\windows\\fonts\\segoeui.ttf'
p365
sg21
g22
sbag7
(g8
g9
NtRp366
(dp367
g12
g13
sg14
S'Levenim MT'
p368
sg16
I700
sg17
g13
sg18
g13
sg19
S'C:\\Windows\\Fonts\\lvnmbd.ttf'
p369
sg21
g22
sbag7
(g8
g9
NtRp370
(dp371
g12
g13
sg14
S'Arimo'
p372
sg16
I400
sg17
g13
sg18
g13
sg19
S'c:\\windows\\fonts\\arimo-regular.ttf'
p373
sg21
g22
sbag7
(g8
g9
NtRp374
(dp375
g12
g13
sg14
S'Times New Roman'
p376
sg16
I700
sg17
g13
sg18
g13
sg19
S'C:\\Windows\\Fonts\\timesbd.ttf'
p377
sg21
g22
sbag7
(g8
g9
NtRp378
(dp379
g12
g13
sg14
S'MoolBoran'
p380
sg16
I400
sg17
g13
sg18
g13
sg19
S'C:\\Windows\\Fonts\\moolbor.ttf'
p381
sg21
g22
sbag7
(g8
g9
NtRp382
(dp383
g12
g13
sg14
S'Marlett'
p384
sg16
I400
sg17
g13
sg18
g13
sg19
S'C:\\Windows\\Fonts\\marlett.ttf'
p385
sg21
g22
sbag7
(g8
g9
NtRp386
(dp387
g12
g13
sg14
S'Browallia New'
p388
sg16
I700
sg17
g13
sg18
g13
sg19
S'c:\\windows\\fonts\\browab.ttf'
p389
sg21
g22
sbag7
(g8
g9
NtRp390
(dp391
g12
g13
sg14
S'Corbel'
p392
sg16
I700
sg17
g13
sg18
g13
sg19
S'c:\\windows\\fonts\\corbelb.ttf'
p393
sg21
g22
sbag7
(g8
g9
NtRp394
(dp395
g12
g13
sg14
S'Simplified Arabic'
p396
sg16
I700
sg17
g13
sg18
g13
sg19
S'c:\\windows\\fonts\\simpbdo.ttf'
p397
sg21
g22
sbag7
(g8
g9
NtRp398
(dp399
g12
g13
sg14
S'DejaVu Sans'
p400
sg16
I200
sg17
g13
sg18
g13
sg19
S'C:\\Windows\\Fonts\\DejaVuSans-ExtraLight.ttf'
p401
sg21
g22
sbag7
(g8
g9
NtRp402
(dp403
g12
g13
sg14
S'LilyUPC'
p404
sg16
I400
sg17
g13
sg18
g13
sg19
S'C:\\Windows\\Fonts\\upcll.ttf'
p405
sg21
g22
sbag7
(g8
g9
NtRp406
(dp407
g12
g25
sg14
S'FreesiaUPC'
p408
sg16
I700
sg17
g13
sg18
g13
sg19
S'C:\\Windows\\Fonts\\upcfbi.ttf'
p409
sg21
g22
sbag7
(g8
g9
NtRp410
(dp411
g12
g25
sg14
S'Gentium Book Basic'
p412
sg16
I700
sg17
g13
sg18
g13
sg19
S'C:\\Windows\\Fonts\\GenBkBasBI.ttf'
p413
sg21
g22
sbag7
(g8
g9
NtRp414
(dp415
g12
g13
sg14
S'Vrinda'
p416
sg16
I700
sg17
g13
sg18
g13
sg19
S'C:\\Windows\\Fonts\\vrindab.ttf'
p417
sg21
g22
sbag7
(g8
g9
NtRp418
(dp419
g12
g13
sg14
S'Kalinga'
p420
sg16
I700
sg17
g13
sg18
g13
sg19
S'C:\\Windows\\Fonts\\kalingab.ttf'
p421
sg21
g22
sbag7
(g8
g9
NtRp422
(dp423
g12
g25
sg14
S'Calibri'
p424
sg16
I400
sg17
g13
sg18
g13
sg19
S'C:\\Windows\\Fonts\\calibrii.ttf'
p425
sg21
g22
sbag7
(g8
g9
NtRp426
(dp427
g12
g25
sg14
S'Ubuntu'
p428
sg16
I200
sg17
g13
sg18
g13
sg19
S'c:\\windows\\fonts\\ubuntu-li.ttf'
p429
sg21
g22
sbag7
(g8
g9
NtRp430
(dp431
g12
g25
sg14
S'Franklin Gothic Medium'
p432
sg16
I500
sg17
g13
sg18
g13
sg19
S'C:\\Windows\\Fonts\\framdit.ttf'
p433
sg21
g22
sbag7
(g8
g9
NtRp434
(dp435
g12
g25
sg14
S'Utsaah'
p436
sg16
I400
sg17
g13
sg18
g13
sg19
S'c:\\windows\\fonts\\utsaahi.ttf'
p437
sg21
g22
sbag7
(g8
g9
NtRp438
(dp439
g12
g25
sg14
S'DilleniaUPC'
p440
sg16
I400
sg17
g13
sg18
g13
sg19
S'c:\\windows\\fonts\\upcdi.ttf'
p441
sg21
g22
sbag7
(g8
g9
NtRp442
(dp443
g12
g13
sg14
S'DFKai-SB'
p444
sg16
I400
sg17
g13
sg18
g13
sg19
S'C:\\Windows\\Fonts\\kaiu.ttf'
p445
sg21
g22
sbag7
(g8
g9
NtRp446
(dp447
g12
g25
sg14
S'AngsanaUPC'
p448
sg16
I700
sg17
g13
sg18
g13
sg19
S'c:\\windows\\fonts\\angsauz.ttf'
p449
sg21
g22
sbag7
(g8
g9
NtRp450
(dp451
g12
g13
sg14
S'Shonar Bangla'
p452
sg16
I400
sg17
g13
sg18
g13
sg19
S'c:\\windows\\fonts\\shonar.ttf'
p453
sg21
g22
sbag7
(g8
g9
NtRp454
(dp455
g12
g25
sg14
S'Verdana'
p456
sg16
I400
sg17
g13
sg18
g13
sg19
S'c:\\windows\\fonts\\verdanai.ttf'
p457
sg21
g22
sbag7
(g8
g9
NtRp458
(dp459
g12
g13
sg14
S'Constantia'
p460
sg16
I700
sg17
g13
sg18
g13
sg19
S'C:\\Windows\\Fonts\\constanb.ttf'
p461
sg21
g22
sbag7
(g8
g9
NtRp462
(dp463
g12
g13
sg14
S'Utsaah'
p464
sg16
I400
sg17
g13
sg18
g13
sg19
S'c:\\windows\\fonts\\utsaah.ttf'
p465
sg21
g22
sbag7
(g8
g9
NtRp466
(dp467
g12
g13
sg14
S'Microsoft YaHei'
p468
sg16
I700
sg17
g13
sg18
g13
sg19
S'c:\\windows\\fonts\\msyhbd.ttf'
p469
sg21
g22
sbag7
(g8
g9
NtRp470
(dp471
g12
g13
sg14
S'Symbol'
p472
sg16
I400
sg17
g13
sg18
g13
sg19
S'c:\\windows\\fonts\\symbol.ttf'
p473
sg21
g22
sbag7
(g8
g9
NtRp474
(dp475
g12
g13
sg14
S'Sylfaen'
p476
sg16
I400
sg17
g13
sg18
g13
sg19
S'c:\\windows\\fonts\\sylfaen.ttf'
p477
sg21
g22
sbag7
(g8
g9
NtRp478
(dp479
g12
g25
sg14
S'Calibri'
p480
sg16
I700
sg17
g13
sg18
g13
sg19
S'C:\\Windows\\Fonts\\calibriz.ttf'
p481
sg21
g22
sbag7
(g8
g9
NtRp482
(dp483
g12
g13
sg14
S'Aharoni'
p484
sg16
I700
sg17
g13
sg18
g13
sg19
S'c:\\windows\\fonts\\ahronbd.ttf'
p485
sg21
g22
sbag7
(g8
g9
NtRp486
(dp487
g12
g13
sg14
S'Utsaah'
p488
sg16
I700
sg17
g13
sg18
g13
sg19
S'c:\\windows\\fonts\\utsaahb.ttf'
p489
sg21
g22
sbag7
(g8
g9
NtRp490
(dp491
g12
g25
sg14
S'JasmineUPC'
p492
sg16
I700
sg17
g13
sg18
g13
sg19
S'C:\\Windows\\Fonts\\upcjbi.ttf'
p493
sg21
g22
sbag7
(g8
g9
NtRp494
(dp495
g12
g25
sg14
S'Gentium Basic'
p496
sg16
I700
sg17
g13
sg18
g13
sg19
S'c:\\windows\\fonts\\genbasbi.ttf'
p497
sg21
g22
sbag7
(g8
g9
NtRp498
(dp499
g12
g13
sg14
S'EucrosiaUPC'
p500
sg16
I400
sg17
g13
sg18
g13
sg19
S'c:\\windows\\fonts\\upcel.ttf'
p501
sg21
g22
sbag7
(g8
g9
NtRp502
(dp503
g12
g13
sg14
S'Gentium Book Basic'
p504
sg16
I400
sg17
g13
sg18
g13
sg19
S'c:\\windows\\fonts\\genbkbasr.ttf'
p505
sg21
g22
sbag7
(g8
g9
NtRp506
(dp507
g12
g25
sg14
S'Constantia'
p508
sg16
I700
sg17
g13
sg18
g13
sg19
S'C:\\Windows\\Fonts\\constanz.ttf'
p509
sg21
g22
sbag7
(g8
g9
NtRp510
(dp511
g12
g13
sg14
S'KodchiangUPC'
p512
sg16
I400
sg17
g13
sg18
g13
sg19
S'c:\\windows\\fonts\\upckl.ttf'
p513
sg21
g22
sbag7
(g8
g9
NtRp514
(dp515
g12
g25
sg14
S'AngsanaUPC'
p516
sg16
I400
sg17
g13
sg18
g13
sg19
S'c:\\windows\\fonts\\angsaui.ttf'
p517
sg21
g22
sbag7
(g8
g9
NtRp518
(dp519
g12
g30
sg14
S'DejaVu Sans'
p520
sg16
I400
sg17
g13
sg18
g13
sg19
S'c:\\windows\\fonts\\dejavusans-oblique.ttf'
p521
sg21
g22
sbag7
(g8
g9
NtRp522
(dp523
g12
g25
sg14
S'FreesiaUPC'
p524
sg16
I400
sg17
g13
sg18
g13
sg19
S'c:\\windows\\fonts\\upcfi.ttf'
p525
sg21
g22
sbag7
(g8
g9
NtRp526
(dp527
g12
g13
sg14
S'Franklin Gothic Medium'
p528
sg16
I500
sg17
g13
sg18
g13
sg19
S'C:\\Windows\\Fonts\\framd.ttf'
p529
sg21
g22
sbag7
(g8
g9
NtRp530
(dp531
g12
g13
sg14
S'Microsoft Tai Le'
p532
sg16
I400
sg17
g13
sg18
g13
sg19
S'c:\\windows\\fonts\\taile.ttf'
p533
sg21
g22
sbag7
(g8
g9
NtRp534
(dp535
g12
g25
sg14
S'KodchiangUPC'
p536
sg16
I700
sg17
g13
sg18
g13
sg19
S'C:\\Windows\\Fonts\\upckbi.ttf'
p537
sg21
g22
sbag7
(g8
g9
NtRp538
(dp539
g12
g13
sg14
S'Ubuntu Mono'
p540
sg16
I700
sg17
g13
sg18
g13
sg19
S'C:\\Windows\\Fonts\\UbuntuMono-B.ttf'
p541
sg21
g22
sbag7
(g8
g9
NtRp542
(dp543
g12
g13
sg14
S'Calibri'
p544
sg16
I400
sg17
g13
sg18
g13
sg19
S'c:\\windows\\fonts\\calibri.ttf'
p545
sg21
g22
sbag7
(g8
g9
NtRp546
(dp547
g12
g13
sg14
S'FangSong'
p548
sg16
I400
sg17
g13
sg18
g13
sg19
S'C:\\Windows\\Fonts\\simfang.ttf'
p549
sg21
g22
sbag7
(g8
g9
NtRp550
(dp551
g12
g25
sg14
S'Gentium Book Basic'
p552
sg16
I400
sg17
g13
sg18
g13
sg19
S'c:\\windows\\fonts\\genbkbasi.ttf'
p553
sg21
g22
sbag7
(g8
g9
NtRp554
(dp555
g12
g13
sg14
S'Impact'
p556
sg16
I400
sg17
g13
sg18
g13
sg19
S'C:\\Windows\\Fonts\\impact.ttf'
p557
sg21
g22
sbag7
(g8
g9
NtRp558
(dp559
g12
g13
sg14
S'Ubuntu'
p560
sg16
I500
sg17
g13
sg18
g13
sg19
S'c:\\windows\\fonts\\ubuntu-m.ttf'
p561
sg21
g22
sbag7
(g8
g9
NtRp562
(dp563
g12
g13
sg14
S'IrisUPC'
p564
sg16
I400
sg17
g13
sg18
g13
sg19
S'c:\\windows\\fonts\\upcil.ttf'
p565
sg21
g22
sbag7
(g8
g9
NtRp566
(dp567
g12
g25
sg14
S'Ubuntu Mono'
p568
sg16
I700
sg17
g13
sg18
g13
sg19
S'C:\\Windows\\Fonts\\UbuntuMono-BI.ttf'
p569
sg21
g22
sbag7
(g8
g9
NtRp570
(dp571
g12
g13
sg14
S'Wingdings'
p572
sg16
I400
sg17
g13
sg18
g13
sg19
S'C:\\Windows\\Fonts\\wingding.ttf'
p573
sg21
g22
sbag7
(g8
g9
NtRp574
(dp575
g12
g13
sg14
S'Latha'
p576
sg16
I400
sg17
g13
sg18
g13
sg19
S'c:\\windows\\fonts\\latha.ttf'
p577
sg21
g22
sbag7
(g8
g9
NtRp578
(dp579
g12
g13
sg14
S'Lucida Console'
p580
sg16
I400
sg17
g13
sg18
g13
sg19
S'c:\\windows\\fonts\\lucon.ttf'
p581
sg21
g22
sbag7
(g8
g9
NtRp582
(dp583
g12
g13
sg14
S'Mangal'
p584
sg16
I700
sg17
g13
sg18
g13
sg19
S'C:\\Windows\\Fonts\\mangalb.ttf'
p585
sg21
g22
sbag7
(g8
g9
NtRp586
(dp587
g12
g13
sg14
S'Kartika'
p588
sg16
I400
sg17
g13
sg18
g13
sg19
S'C:\\Windows\\Fonts\\kartika.ttf'
p589
sg21
g22
sbag7
(g8
g9
NtRp590
(dp591
g12
g13
sg14
S'Vani'
p592
sg16
I400
sg17
g13
sg18
g13
sg19
S'c:\\windows\\fonts\\vani.ttf'
p593
sg21
g22
sbag7
(g8
g9
NtRp594
(dp595
g12
g13
sg14
S'DejaVu Serif'
p596
sg16
I400
sg17
g240
sg18
g13
sg19
S'c:\\windows\\fonts\\dejavuserifcondensed.ttf'
p597
sg21
g22
sbag7
(g8
g9
NtRp598
(dp599
g12
g13
sg14
S'DilleniaUPC'
p600
sg16
I400
sg17
g13
sg18
g13
sg19
S'c:\\windows\\fonts\\upcdl.ttf'
p601
sg21
g22
sbag7
(g8
g9
NtRp602
(dp603
g12
g13
sg14
S'LilyUPC'
p604
sg16
I700
sg17
g13
sg18
g13
sg19
S'C:\\Windows\\Fonts\\upclb.ttf'
p605
sg21
g22
sbag7
(g8
g9
NtRp606
(dp607
g12
g25
sg14
S'Gentium Basic'
p608
sg16
I400
sg17
g13
sg18
g13
sg19
S'C:\\Windows\\Fonts\\GenBasI.ttf'
p609
sg21
g22
sbag7
(g8
g9
NtRp610
(dp611
g12
g13
sg14
S'Lucida Sans Unicode'
p612
sg16
I400
sg17
g13
sg18
g13
sg19
S'C:\\Windows\\Fonts\\l_10646.ttf'
p613
sg21
g22
sbag7
(g8
g9
NtRp614
(dp615
g12
g13
sg14
S'Ubuntu Condensed'
p616
sg16
I400
sg17
g240
sg18
g13
sg19
S'c:\\windows\\fonts\\ubuntu-c.ttf'
p617
sg21
g22
sbag7
(g8
g9
NtRp618
(dp619
g12
g30
sg14
S'DejaVu Sans Mono'
p620
sg16
I400
sg17
g13
sg18
g13
sg19
S'C:\\Windows\\Fonts\\DejaVuSansMono-Oblique.ttf'
p621
sg21
g22
sbag7
(g8
g9
NtRp622
(dp623
g12
g25
sg14
S'Aparajita'
p624
sg16
I700
sg17
g13
sg18
g13
sg19
S'c:\\windows\\fonts\\aparajbi.ttf'
p625
sg21
g22
sbag7
(g8
g9
NtRp626
(dp627
g12
g13
sg14
S'Ebrima'
p628
sg16
I700
sg17
g13
sg18
g13
sg19
S'c:\\windows\\fonts\\ebrimabd.ttf'
p629
sg21
g22
sbag7
(g8
g9
NtRp630
(dp631
g12
g13
sg14
S'Segoe Print'
p632
sg16
I400
sg17
g13
sg18
g13
sg19
S'C:\\Windows\\Fonts\\segoepr.ttf'
p633
sg21
g22
sbag7
(g8
g9
NtRp634
(dp635
g12
g13
sg14
S'Microsoft Sans Serif'
p636
sg16
I400
sg17
g13
sg18
g13
sg19
S'C:\\Windows\\Fonts\\micross.ttf'
p637
sg21
g22
sbag7
(g8
g9
NtRp638
(dp639
g12
g25
sg14
S'Kokila'
p640
sg16
I700
sg17
g13
sg18
g13
sg19
S'C:\\Windows\\Fonts\\kokilabi.ttf'
p641
sg21
g22
sbag7
(g8
g9
NtRp642
(dp643
g12
g13
sg14
S'Segoe Print'
p644
sg16
I700
sg17
g13
sg18
g13
sg19
S'C:\\Windows\\Fonts\\segoeprb.ttf'
p645
sg21
g22
sbag7
(g8
g9
NtRp646
(dp647
g12
g13
sg14
S'FreesiaUPC'
p648
sg16
I400
sg17
g13
sg18
g13
sg19
S'C:\\Windows\\Fonts\\upcfl.ttf'
p649
sg21
g22
sbag7
(g8
g9
NtRp650
(dp651
g12
g13
sg14
S'Miriam Fixed'
p652
sg16
I400
sg17
g13
sg18
g13
sg19
S'c:\\windows\\fonts\\mriamc.ttf'
p653
sg21
g22
sbag7
(g8
g9
NtRp654
(dp655
g12
g25
sg14
S'IrisUPC'
p656
sg16
I400
sg17
g13
sg18
g13
sg19
S'c:\\windows\\fonts\\upcii.ttf'
p657
sg21
g22
sbag7
(g8
g9
NtRp658
(dp659
g12
g13
sg14
S'DejaVu Serif'
p660
sg16
I400
sg17
g13
sg18
g13
sg19
S'C:\\Windows\\Fonts\\DejaVuSerif.ttf'
p661
sg21
g22
sbag7
(g8
g9
NtRp662
(dp663
g12
g25
sg14
S'Cordia New'
p664
sg16
I700
sg17
g13
sg18
g13
sg19
S'C:\\Windows\\Fonts\\cordiaz.ttf'
p665
sg21
g22
sbag7
(g8
g9
NtRp666
(dp667
g12
g13
sg14
S'Times New Roman'
p668
sg16
I500
sg17
g13
sg18
g13
sg19
S'c:\\windows\\fonts\\times.ttf'
p669
sg21
g22
sbag7
(g8
g9
NtRp670
(dp671
g12
g13
sg14
S'Ubuntu'
p672
sg16
I200
sg17
g13
sg18
g13
sg19
S'C:\\Windows\\Fonts\\Ubuntu-L.ttf'
p673
sg21
g22
sbag7
(g8
g9
NtRp674
(dp675
g12
g13
sg14
S'Consolas'
p676
sg16
I700
sg17
g13
sg18
g13
sg19
S'c:\\windows\\fonts\\consolab.ttf'
p677
sg21
g22
sbag7
(g8
g9
NtRp678
(dp679
g12
g13
sg14
S'Ubuntu'
p680
sg16
I500
sg17
g13
sg18
g13
sg19
S'C:\\Windows\\Fonts\\Ubuntu-M.ttf'
p681
sg21
g22
sbag7
(g8
g9
NtRp682
(dp683
g12
g13
sg14
S'Ubuntu'
p684
sg16
I400
sg17
g13
sg18
g13
sg19
S'c:\\windows\\fonts\\ubuntu-r.ttf'
p685
sg21
g22
sbag7
(g8
g9
NtRp686
(dp687
g12
g13
sg14
S'DejaVu Sans'
p688
sg16
I400
sg17
g13
sg18
g13
sg19
S'c:\\windows\\fonts\\dejavusans.ttf'
p689
sg21
g22
sbag7
(g8
g9
NtRp690
(dp691
g12
g13
sg14
S'Vijaya'
p692
sg16
I700
sg17
g13
sg18
g13
sg19
S'c:\\windows\\fonts\\vijayab.ttf'
p693
sg21
g22
sbag7
(g8
g9
NtRp694
(dp695
g12
g30
sg14
S'DejaVu Sans'
p696
sg16
I400
sg17
g240
sg18
g13
sg19
S'C:\\Windows\\Fonts\\DejaVuSansCondensed-Oblique.ttf'
p697
sg21
g22
sbag7
(g8
g9
NtRp698
(dp699
g12
g25
sg14
S'Courier New'
p700
sg16
I400
sg17
g13
sg18
g13
sg19
S'c:\\windows\\fonts\\couri.ttf'
p701
sg21
g22
sbag7
(g8
g9
NtRp702
(dp703
g12
g13
sg14
S'Shruti'
p704
sg16
I700
sg17
g13
sg18
g13
sg19
S'C:\\Windows\\Fonts\\shrutib.ttf'
p705
sg21
g22
sbag7
(g8
g9
NtRp706
(dp707
g12
g25
sg14
S'CordiaUPC'
p708
sg16
I700
sg17
g13
sg18
g13
sg19
S'c:\\windows\\fonts\\cordiauz.ttf'
p709
sg21
g22
sbag7
(g8
g9
NtRp710
(dp711
g12
g13
sg14
S'Leelawadee'
p712
sg16
I400
sg17
g13
sg18
g13
sg19
S'c:\\windows\\fonts\\leelawad.ttf'
p713
sg21
g22
sbag7
(g8
g9
NtRp714
(dp715
g12
g13
sg14
S'Arial'
p716
sg16
I400
sg17
g13
sg18
g13
sg19
S'c:\\windows\\fonts\\arial.ttf'
p717
sg21
g22
sbag7
(g8
g9
NtRp718
(dp719
g12
g13
sg14
S'Shonar Bangla'
p720
sg16
I700
sg17
g13
sg18
g13
sg19
S'c:\\windows\\fonts\\shonarb.ttf'
p721
sg21
g22
sbag7
(g8
g9
NtRp722
(dp723
g12
g13
sg14
S'Vani'
p724
sg16
I400
sg17
g13
sg18
g13
sg19
S'C:\\Windows\\Fonts\\Vani.ttf'
p725
sg21
g22
sbag7
(g8
g9
NtRp726
(dp727
g12
g25
sg14
S'Ubuntu'
p728
sg16
I700
sg17
g13
sg18
g13
sg19
S'C:\\Windows\\Fonts\\Ubuntu-BI.ttf'
p729
sg21
g22
sbag7
(g8
g9
NtRp730
(dp731
g12
g13
sg14
S'DejaVu Sans Mono'
p732
sg16
I700
sg17
g13
sg18
g13
sg19
S'c:\\windows\\fonts\\dejavusansmono-bold.ttf'
p733
sg21
g22
sbag7
(g8
g9
NtRp734
(dp735
g12
g13
sg14
S'Traditional Arabic'
p736
sg16
I700
sg17
g13
sg18
g13
sg19
S'C:\\Windows\\Fonts\\tradbdo.ttf'
p737
sg21
g22
sbag7
(g8
g9
NtRp738
(dp739
g12
g25
sg14
S'DilleniaUPC'
p740
sg16
I700
sg17
g13
sg18
g13
sg19
S'c:\\windows\\fonts\\upcdbi.ttf'
p741
sg21
g22
sbag7
(g8
g9
NtRp742
(dp743
g12
g25
sg14
S'Kokila'
p744
sg16
I400
sg17
g13
sg18
g13
sg19
S'C:\\Windows\\Fonts\\kokilai.ttf'
p745
sg21
g22
sbag7
(g8
g9
NtRp746
(dp747
g12
g13
sg14
S'Segoe Script'
p748
sg16
I400
sg17
g13
sg18
g13
sg19
S'C:\\Windows\\Fonts\\segoesc.ttf'
p749
sg21
g22
sbag7
(g8
g9
NtRp750
(dp751
g12
g25
sg14
S'Palatino Linotype'
p752
sg16
I400
sg17
g13
sg18
g13
sg19
S'c:\\windows\\fonts\\palai.ttf'
p753
sg21
g22
sbag7
(g8
g9
NtRp754
(dp755
g12
g13
sg14
S'Malgun Gothic'
p756
sg16
I400
sg17
g13
sg18
g13
sg19
S'C:\\Windows\\Fonts\\malgun.ttf'
p757
sg21
g22
sbag7
(g8
g9
NtRp758
(dp759
g12
g25
sg14
S'Ubuntu Mono'
p760
sg16
I700
sg17
g13
sg18
g13
sg19
S'c:\\windows\\fonts\\ubuntumono-bi.ttf'
p761
sg21
g22
sbag7
(g8
g9
NtRp762
(dp763
g12
g13
sg14
S'Calibri'
p764
sg16
I700
sg17
g13
sg18
g13
sg19
S'c:\\windows\\fonts\\calibrib.ttf'
p765
sg21
g22
sbag7
(g8
g9
NtRp766
(dp767
g12
g25
sg14
S'Arimo'
p768
sg16
I400
sg17
g13
sg18
g13
sg19
S'C:\\Windows\\Fonts\\Arimo-Italic.ttf'
p769
sg21
g22
sbag7
(g8
g9
NtRp770
(dp771
g12
g13
sg14
S'JasmineUPC'
p772
sg16
I700
sg17
g13
sg18
g13
sg19
S'c:\\windows\\fonts\\upcjb.ttf'
p773
sg21
g22
sbag7
(g8
g9
NtRp774
(dp775
g12
g25
sg14
S'DejaVu Serif'
p776
sg16
I700
sg17
g13
sg18
g13
sg19
S'C:\\Windows\\Fonts\\DejaVuSerif-BoldItalic.ttf'
p777
sg21
g22
sbag7
(g8
g9
NtRp778
(dp779
g12
g13
sg14
S'David'
p780
sg16
I700
sg17
g13
sg18
g13
sg19
S'c:\\windows\\fonts\\davidbd.ttf'
p781
sg21
g22
sbag7
(g8
g9
NtRp782
(dp783
g12
g25
sg14
S'Constantia'
p784
sg16
I400
sg17
g13
sg18
g13
sg19
S'C:\\Windows\\Fonts\\constani.ttf'
p785
sg21
g22
sbag7
(g8
g9
NtRp786
(dp787
g12
g30
sg14
S'DejaVu Sans'
p788
sg16
I700
sg17
g240
sg18
g13
sg19
S'c:\\windows\\fonts\\dejavusanscondensed-boldoblique.ttf'
p789
sg21
g22
sbag7
(g8
g9
NtRp790
(dp791
g12
g13
sg14
S'Constantia'
p792
sg16
I400
sg17
g13
sg18
g13
sg19
S'c:\\windows\\fonts\\constan.ttf'
p793
sg21
g22
sbag7
(g8
g9
NtRp794
(dp795
g12
g13
sg14
S'Simplified Arabic Fixed'
p796
sg16
I400
sg17
g13
sg18
g13
sg19
S'c:\\windows\\fonts\\simpfxo.ttf'
p797
sg21
g22
sbag7
(g8
g9
NtRp798
(dp799
g12
g13
sg14
S'Mangal'
p800
sg16
I400
sg17
g13
sg18
g13
sg19
S'c:\\windows\\fonts\\mangal.ttf'
p801
sg21
g22
sbag7
(g8
g9
NtRp802
(dp803
g12
g13
sg14
S'Trebuchet MS'
p804
sg16
I400
sg17
g13
sg18
g13
sg19
S'c:\\windows\\fonts\\trebuc.ttf'
p805
sg21
g22
sbag7
(g8
g9
NtRp806
(dp807
g12
g13
sg14
S'SimHei'
p808
sg16
I400
sg17
g13
sg18
g13
sg19
S'c:\\windows\\fonts\\simhei.ttf'
p809
sg21
g22
sbag7
(g8
g9
NtRp810
(dp811
g12
g13
sg14
S'Lao UI'
p812
sg16
I400
sg17
g13
sg18
g13
sg19
S'c:\\windows\\fonts\\laoui.ttf'
p813
sg21
g22
sbag7
(g8
g9
NtRp814
(dp815
g12
g25
sg14
S'Cambria'
p816
sg16
I400
sg17
g13
sg18
g13
sg19
S'c:\\windows\\fonts\\cambriai.ttf'
p817
sg21
g22
sbag7
(g8
g9
NtRp818
(dp819
g12
g25
sg14
S'BrowalliaUPC'
p820
sg16
I400
sg17
g13
sg18
g13
sg19
S'C:\\Windows\\Fonts\\browaui.ttf'
p821
sg21
g22
sbag7
(g8
g9
NtRp822
(dp823
g12
g13
sg14
S'DaunPenh'
p824
sg16
I400
sg17
g13
sg18
g13
sg19
S'c:\\windows\\fonts\\daunpenh.ttf'
p825
sg21
g22
sbag7
(g8
g9
NtRp826
(dp827
g12
g13
sg14
S'Candara'
p828
sg16
I700
sg17
g13
sg18
g13
sg19
S'C:\\Windows\\Fonts\\Candarab.ttf'
p829
sg21
g22
sbag7
(g8
g9
NtRp830
(dp831
g12
g13
sg14
S'Arial'
p832
sg16
I900
sg17
g13
sg18
g13
sg19
S'C:\\Windows\\Fonts\\ariblk.ttf'
p833
sg21
g22
sbag7
(g8
g9
NtRp834
(dp835
g12
g13
sg14
S'Corbel'
p836
sg16
I400
sg17
g13
sg18
g13
sg19
S'C:\\Windows\\Fonts\\corbel.ttf'
p837
sg21
g22
sbag7
(g8
g9
NtRp838
(dp839
g12
g13
sg14
S'Gautami'
p840
sg16
I400
sg17
g13
sg18
g13
sg19
S'C:\\Windows\\Fonts\\gautami.ttf'
p841
sg21
g22
sbag7
(g8
g9
NtRp842
(dp843
g12
g25
sg14
S'Ubuntu'
p844
sg16
I400
sg17
g13
sg18
g13
sg19
S'C:\\Windows\\Fonts\\Ubuntu-RI.ttf'
p845
sg21
g22
sbag7
(g8
g9
NtRp846
(dp847
g12
g13
sg14
S'Microsoft Yi Baiti'
p848
sg16
I400
sg17
g13
sg18
g13
sg19
S'C:\\Windows\\Fonts\\msyi.ttf'
p849
sg21
g22
sbag7
(g8
g9
NtRp850
(dp851
g12
g25
sg14
S'DejaVu Serif'
p852
sg16
I400
sg17
g240
sg18
g13
sg19
S'c:\\windows\\fonts\\dejavuserifcondensed-italic.ttf'
p853
sg21
g22
sbag7
(g8
g9
NtRp854
(dp855
g12
g13
sg14
S'Levenim MT'
p856
sg16
I400
sg17
g13
sg18
g13
sg19
S'C:\\Windows\\Fonts\\lvnm.ttf'
p857
sg21
g22
sbag7
(g8
g9
NtRp858
(dp859
g12
g13
sg14
S'DilleniaUPC'
p860
sg16
I700
sg17
g13
sg18
g13
sg19
S'c:\\windows\\fonts\\upcdb.ttf'
p861
sg21
g22
sbag7
(g8
g9
NtRp862
(dp863
g12
g13
sg14
S'DejaVu Serif'
p864
sg16
I700
sg17
g240
sg18
g13
sg19
S'C:\\Windows\\Fonts\\DejaVuSerifCondensed-Bold.ttf'
p865
sg21
g22
sbag7
(g8
g9
NtRp866
(dp867
g12
g13
sg14
S'Narkisim'
p868
sg16
I400
sg17
g13
sg18
g13
sg19
S'C:\\Windows\\Fonts\\nrkis.ttf'
p869
sg21
g22
sbag7
(g8
g9
NtRp870
(dp871
g12
g13
sg14
S'Verdana'
p872
sg16
I700
sg17
g13
sg18
g13
sg19
S'c:\\windows\\fonts\\verdanab.ttf'
p873
sg21
g22
sbag7
(g8
g9
NtRp874
(dp875
g12
g13
sg14
S'Microsoft PhagsPa'
p876
sg16
I700
sg17
g13
sg18
g13
sg19
S'C:\\Windows\\Fonts\\phagspab.ttf'
p877
sg21
g22
sbag7
(g8
g9
NtRp878
(dp879
g12
g25
sg14
S'Courier New'
p880
sg16
I700
sg17
g13
sg18
g13
sg19
S'c:\\windows\\fonts\\courbi.ttf'
p881
sg21
g22
sbag7
(g8
g9
NtRp882
(dp883
g12
g13
sg14
S'Gentium Book Basic'
p884
sg16
I400
sg17
g13
sg18
g13
sg19
S'C:\\Windows\\Fonts\\GenBkBasR.ttf'
p885
sg21
g22
sbag7
(g8
g9
NtRp886
(dp887
g12
g13
sg14
S'Microsoft PhagsPa'
p888
sg16
I400
sg17
g13
sg18
g13
sg19
S'c:\\windows\\fonts\\phagspa.ttf'
p889
sg21
g22
sbag7
(g8
g9
NtRp890
(dp891
g12
g25
sg14
S'DejaVu Serif'
p892
sg16
I700
sg17
g240
sg18
g13
sg19
S'C:\\Windows\\Fonts\\DejaVuSerifCondensed-BoldItalic.ttf'
p893
sg21
g22
sbag7
(g8
g9
NtRp894
(dp895
g12
g13
sg14
S'IrisUPC'
p896
sg16
I700
sg17
g13
sg18
g13
sg19
S'C:\\Windows\\Fonts\\upcib.ttf'
p897
sg21
g22
sbag7
(g8
g9
NtRp898
(dp899
g12
g25
sg14
S'DejaVu Serif'
p900
sg16
I400
sg17
g13
sg18
g13
sg19
S'c:\\windows\\fonts\\dejavuserif-italic.ttf'
p901
sg21
g22
sbag7
(g8
g9
NtRp902
(dp903
g12
g13
sg14
S'OpenSymbol'
p904
sg16
I400
sg17
g13
sg18
g13
sg19
S'C:\\Windows\\Fonts\\opens___.ttf'
p905
sg21
g22
sbag7
(g8
g9
NtRp906
(dp907
g12
g13
sg14
S'Angsana New'
p908
sg16
I400
sg17
g13
sg18
g13
sg19
S'C:\\Windows\\Fonts\\angsa.ttf'
p909
sg21
g22
sbag7
(g8
g9
NtRp910
(dp911
g12
g13
sg14
S'Angsana New'
p912
sg16
I700
sg17
g13
sg18
g13
sg19
S'C:\\Windows\\Fonts\\angsab.ttf'
p913
sg21
g22
sbag7
(g8
g9
NtRp914
(dp915
g12
g13
sg14
S'Segoe UI'
p916
sg16
I700
sg17
g13
sg18
g13
sg19
S'C:\\Windows\\Fonts\\segoeuib.ttf'
p917
sg21
g22
sbag7
(g8
g9
NtRp918
(dp919
g12
g13
sg14
S'Ebrima'
p920
sg16
I400
sg17
g13
sg18
g13
sg19
S'C:\\Windows\\Fonts\\ebrima.ttf'
p921
sg21
g22
sbag7
(g8
g9
NtRp922
(dp923
g12
g25
sg14
S'Candara'
p924
sg16
I700
sg17
g13
sg18
g13
sg19
S'C:\\Windows\\Fonts\\Candaraz.ttf'
p925
sg21
g22
sbag7
(g8
g9
NtRp926
(dp927
g12
g13
sg14
S'Ubuntu Condensed'
p928
sg16
I400
sg17
g240
sg18
g13
sg19
S'C:\\Windows\\Fonts\\Ubuntu-C.ttf'
p929
sg21
g22
sbag7
(g8
g9
NtRp930
(dp931
g12
g25
sg14
S'Consolas'
p932
sg16
I400
sg17
g13
sg18
g13
sg19
S'C:\\Windows\\Fonts\\consolai.ttf'
p933
sg21
g22
sbag7
(g8
g9
NtRp934
(dp935
g12
g13
sg14
S'Traditional Arabic'
p936
sg16
I400
sg17
g13
sg18
g13
sg19
S'c:\\windows\\fonts\\trado.ttf'
p937
sg21
g22
sbag7
(g8
g9
NtRp938
(dp939
g12
g13
sg14
S'BrowalliaUPC'
p940
sg16
I700
sg17
g13
sg18
g13
sg19
S'c:\\windows\\fonts\\browaub.ttf'
p941
sg21
g22
sbag7
(g8
g9
NtRp942
(dp943
g12
g13
sg14
S'Microsoft Uighur'
p944
sg16
I400
sg17
g13
sg18
g13
sg19
S'C:\\Windows\\Fonts\\msuighur.ttf'
p945
sg21
g22
sbag7
(g8
g9
NtRp946
(dp947
g12
g13
sg14
S'Courier New'
p948
sg16
I700
sg17
g13
sg18
g13
sg19
S'C:\\Windows\\Fonts\\courbd.ttf'
p949
sg21
g22
sbag7
(g8
g9
NtRp950
(dp951
g12
g25
sg14
S'Times New Roman'
p952
sg16
I700
sg17
g13
sg18
g13
sg19
S'C:\\Windows\\Fonts\\timesbi.ttf'
p953
sg21
g22
sbag7
(g8
g9
NtRp954
(dp955
g12
g13
sg14
S'Gisha'
p956
sg16
I400
sg17
g13
sg18
g13
sg19
S'c:\\windows\\fonts\\gisha.ttf'
p957
sg21
g22
sbag7
(g8
g9
NtRp958
(dp959
g12
g30
sg14
S'DejaVu Sans Mono'
p960
sg16
I700
sg17
g13
sg18
g13
sg19
S'c:\\windows\\fonts\\dejavusansmono-boldoblique.ttf'
p961
sg21
g22
sbag7
(g8
g9
NtRp962
(dp963
g12
g13
sg14
S'Aparajita'
p964
sg16
I700
sg17
g13
sg18
g13
sg19
S'C:\\Windows\\Fonts\\aparajb.ttf'
p965
sg21
g22
sbag7
(g8
g9
NtRp966
(dp967
g12
g13
sg14
S'Arimo'
p968
sg16
I700
sg17
g13
sg18
g13
sg19
S'C:\\Windows\\Fonts\\Arimo-Bold.ttf'
p969
sg21
g22
sbag7
(g8
g9
NtRp970
(dp971
g12
g25
sg14
S'Arial'
p972
sg16
I700
sg17
g13
sg18
g13
sg19
S'c:\\windows\\fonts\\arialbi.ttf'
p973
sg21
g22
sbag7
(g8
g9
NtRp974
(dp975
g12
g25
sg14
S'Trebuchet MS'
p976
sg16
I400
sg17
g13
sg18
g13
sg19
S'c:\\windows\\fonts\\trebucit.ttf'
p977
sg21
g22
sbag7
(g8
g9
NtRp978
(dp979
g12
g25
sg14
S'Arimo'
p980
sg16
I700
sg17
g13
sg18
g13
sg19
S'c:\\windows\\fonts\\arimo-bolditalic.ttf'
p981
sg21
g22
sbag7
(g8
g9
NtRp982
(dp983
g12
g25
sg14
S'Ubuntu'
p984
sg16
I400
sg17
g13
sg18
g13
sg19
S'c:\\windows\\fonts\\ubuntu-ri.ttf'
p985
sg21
g22
sbag7
(g8
g9
NtRp986
(dp987
g12
g13
sg14
S'SimSun-ExtB'
p988
sg16
I400
sg17
g13
sg18
g13
sg19
S'c:\\windows\\fonts\\simsunb.ttf'
p989
sg21
g22
sbag7
(g8
g9
NtRp990
(dp991
g12
g13
sg14
S'Miriam'
p992
sg16
I400
sg17
g13
sg18
g13
sg19
S'c:\\windows\\fonts\\mriam.ttf'
p993
sg21
g22
sbag7
(g8
g9
NtRp994
(dp995
g12
g13
sg14
S'Comic Sans MS'
p996
sg16
I700
sg17
g13
sg18
g13
sg19
S'c:\\windows\\fonts\\comicbd.ttf'
p997
sg21
g22
sbag7
(g8
g9
NtRp998
(dp999
g12
g13
sg14
S'Candara'
p1000
sg16
I700
sg17
g13
sg18
g13
sg19
S'c:\\windows\\fonts\\candarab.ttf'
p1001
sg21
g22
sbag7
(g8
g9
NtRp1002
(dp1003
g12
g25
sg14
S'Georgia'
p1004
sg16
I700
sg17
g13
sg18
g13
sg19
S'C:\\Windows\\Fonts\\georgiaz.ttf'
p1005
sg21
g22
sbag7
(g8
g9
NtRp1006
(dp1007
g12
g13
sg14
S'Microsoft JhengHei'
p1008
sg16
I400
sg17
g13
sg18
g13
sg19
S'C:\\Windows\\Fonts\\msjh.ttf'
p1009
sg21
g22
sbag7
(g8
g9
NtRp1010
(dp1011
g12
g25
sg14
S'Ubuntu'
p1012
sg16
I700
sg17
g13
sg18
g13
sg19
S'c:\\windows\\fonts\\ubuntu-bi.ttf'
p1013
sg21
g22
sbag7
(g8
g9
NtRp1014
(dp1015
g12
g25
sg14
S'EucrosiaUPC'
p1016
sg16
I700
sg17
g13
sg18
g13
sg19
S'c:\\windows\\fonts\\upcebi.ttf'
p1017
sg21
g22
sbag7
(g8
g9
NtRp1018
(dp1019
g12
g13
sg14
S'Browallia New'
p1020
sg16
I400
sg17
g13
sg18
g13
sg19
S'C:\\Windows\\Fonts\\browa.ttf'
p1021
sg21
g22
sbag7
(g8
g9
NtRp1022
(dp1023
g12
g13
sg14
S'DejaVu Sans'
p1024
sg16
I400
sg17
g13
sg18
g13
sg19
S'C:\\Windows\\Fonts\\DejaVuSans.ttf'
p1025
sg21
g22
sbag7
(g8
g9
NtRp1026
(dp1027
g12
g25
sg14
S'Candara'
p1028
sg16
I400
sg17
g13
sg18
g13
sg19
S'c:\\windows\\fonts\\candarai.ttf'
p1029
sg21
g22
sbag7
(g8
g9
NtRp1030
(dp1031
g12
g13
sg14
S'EucrosiaUPC'
p1032
sg16
I700
sg17
g13
sg18
g13
sg19
S'c:\\windows\\fonts\\upceb.ttf'
p1033
sg21
g22
sbag7
(g8
g9
NtRp1034
(dp1035
g12
g13
sg14
S'DejaVu Sans Mono'
p1036
sg16
I700
sg17
g13
sg18
g13
sg19
S'C:\\Windows\\Fonts\\DejaVuSansMono-Bold.ttf'
p1037
sg21
g22
sbag7
(g8
g9
NtRp1038
(dp1039
g12
g13
sg14
S'Aparajita'
p1040
sg16
I400
sg17
g13
sg18
g13
sg19
S'c:\\windows\\fonts\\aparaj.ttf'
p1041
sg21
g22
sbag7
(g8
g9
NtRp1042
(dp1043
g12
g13
sg14
S'Tunga'
p1044
sg16
I700
sg17
g13
sg18
g13
sg19
S'c:\\windows\\fonts\\tungab.ttf'
p1045
sg21
g22
sbag7
(g8
g9
NtRp1046
(dp1047
g12
g30
sg14
S'DejaVu Sans'
p1048
sg16
I400
sg17
g240
sg18
g13
sg19
S'c:\\windows\\fonts\\dejavusanscondensed-oblique.ttf'
p1049
sg21
g22
sbag7
(g8
g9
NtRp1050
(dp1051
g12
g25
sg14
S'Times New Roman'
p1052
sg16
I500
sg17
g13
sg18
g13
sg19
S'C:\\Windows\\Fonts\\timesi.ttf'
p1053
sg21
g22
sbag7
(g8
g9
NtRp1054
(dp1055
g12
g13
sg14
S'Gabriola'
p1056
sg16
I400
sg17
g13
sg18
g13
sg19
S'C:\\Windows\\Fonts\\Gabriola.ttf'
p1057
sg21
g22
sbag7
(g8
g9
NtRp1058
(dp1059
g12
g13
sg14
S'Iskoola Pota'
p1060
sg16
I400
sg17
g13
sg18
g13
sg19
S'c:\\windows\\fonts\\iskpota.ttf'
p1061
sg21
g22
sbag7
(g8
g9
NtRp1062
(dp1063
g12
g25
sg14
S'Candara'
p1064
sg16
I400
sg17
g13
sg18
g13
sg19
S'C:\\Windows\\Fonts\\Candarai.ttf'
p1065
sg21
g22
sbag7
(g8
g9
NtRp1066
(dp1067
g12
g25
sg14
S'Aparajita'
p1068
sg16
I400
sg17
g13
sg18
g13
sg19
S'c:\\windows\\fonts\\aparaji.ttf'
p1069
sg21
g22
sbag7
(g8
g9
NtRp1070
(dp1071
g12
g13
sg14
S'Kalinga'
p1072
sg16
I400
sg17
g13
sg18
g13
sg19
S'C:\\Windows\\Fonts\\kalinga.ttf'
p1073
sg21
g22
sbag7
(g8
g9
NtRp1074
(dp1075
g12
g13
sg14
S'Gentium Basic'
p1076
sg16
I400
sg17
g13
sg18
g13
sg19
S'C:\\Windows\\Fonts\\GenBasR.ttf'
p1077
sg21
g22
sbag7
(g8
g9
NtRp1078
(dp1079
g12
g25
sg14
S'Segoe UI'
p1080
sg16
I400
sg17
g13
sg18
g13
sg19
S'C:\\Windows\\Fonts\\segoeuii.ttf'
p1081
sg21
g22
sbag7
(g8
g9
NtRp1082
(dp1083
g12
g13
sg14
S'Candara'
p1084
sg16
I400
sg17
g13
sg18
g13
sg19
S'c:\\windows\\fonts\\candara.ttf'
p1085
sg21
g22
sbag7
(g8
g9
NtRp1086
(dp1087
g12
g13
sg14
S'MV Boli'
p1088
sg16
I400
sg17
g13
sg18
g13
sg19
S'C:\\Windows\\Fonts\\mvboli.ttf'
p1089
sg21
g22
sbag7
(g8
g9
NtRp1090
(dp1091
g12
g13
sg14
S'Vijaya'
p1092
sg16
I400
sg17
g13
sg18
g13
sg19
S'c:\\windows\\fonts\\vijaya.ttf'
p1093
sg21
g22
sbag7
(g8
g9
NtRp1094
(dp1095
g12
g25
sg14
S'Cordia New'
p1096
sg16
I400
sg17
g13
sg18
g13
sg19
S'C:\\Windows\\Fonts\\cordiai.ttf'
p1097
sg21
g22
sbag7
(g8
g9
NtRp1098
(dp1099
g12
g13
sg14
S'Sakkal Majalla'
p1100
sg16
I700
sg17
g13
sg18
g13
sg19
S'C:\\Windows\\Fonts\\majallab.ttf'
p1101
sg21
g22
sbag7
(g8
g9
NtRp1102
(dp1103
g12
g13
sg14
S'JasmineUPC'
p1104
sg16
I400
sg17
g13
sg18
g13
sg19
S'c:\\windows\\fonts\\upcjl.ttf'
p1105
sg21
g22
sbag7
(g8
g9
NtRp1106
(dp1107
g12
g13
sg14
S'Shonar Bangla'
p1108
sg16
I400
sg17
g13
sg18
g13
sg19
S'C:\\Windows\\Fonts\\Shonar.ttf'
p1109
sg21
g22
sbag7
(g8
g9
NtRp1110
(dp1111
g12
g13
sg14
S'Gentium Basic'
p1112
sg16
I400
sg17
g13
sg18
g13
sg19
S'c:\\windows\\fonts\\genbasr.ttf'
p1113
sg21
g22
sbag7
(g8
g9
NtRp1114
(dp1115
g12
g13
sg14
S'Segoe UI'
p1116
sg16
I400
sg17
g13
sg18
g13
sg19
S'C:\\Windows\\Fonts\\segoeuil.ttf'
p1117
sg21
g22
sbag7
(g8
g9
NtRp1118
(dp1119
g12
g25
sg14
S'Corbel'
p1120
sg16
I700
sg17
g13
sg18
g13
sg19
S'C:\\Windows\\Fonts\\corbelz.ttf'
p1121
sg21
g22
sbag7
(g8
g9
NtRp1122
(dp1123
g12
g13
sg14
S'Segoe Script'
p1124
sg16
I700
sg17
g13
sg18
g13
sg19
S'c:\\windows\\fonts\\segoescb.ttf'
p1125
sg21
g22
sbag7
(g8
g9
NtRp1126
(dp1127
g12
g25
sg14
S'DejaVu Serif'
p1128
sg16
I700
sg17
g240
sg18
g13
sg19
S'c:\\windows\\fonts\\dejavuserifcondensed-bolditalic.ttf'
p1129
sg21
g22
sbag7
(g8
g9
NtRp1130
(dp1131
g12
g13
sg14
S'Comic Sans MS'
p1132
sg16
I400
sg17
g13
sg18
g13
sg19
S'C:\\Windows\\Fonts\\comic.ttf'
p1133
sg21
g22
sbag7
(g8
g9
NtRp1134
(dp1135
g12
g13
sg14
S'Shruti'
p1136
sg16
I400
sg17
g13
sg18
g13
sg19
S'C:\\Windows\\Fonts\\shruti.ttf'
p1137
sg21
g22
sbag7
(g8
g9
NtRp1138
(dp1139
g12
g13
sg14
S'Ubuntu Mono'
p1140
sg16
I400
sg17
g13
sg18
g13
sg19
S'c:\\program files (x86)\\sr research\\dataviewer\\ubuntumono-r.ttf'
p1141
sg21
g22
sbag7
(g8
g9
NtRp1142
(dp1143
g12
g13
sg14
S'DejaVu Sans Mono'
p1144
sg16
I400
sg17
g13
sg18
g13
sg19
S'c:\\windows\\fonts\\dejavusansmono.ttf'
p1145
sg21
g22
sbag7
(g8
g9
NtRp1146
(dp1147
g12
g13
sg14
S'Palatino Linotype'
p1148
sg16
I700
sg17
g13
sg18
g13
sg19
S'c:\\windows\\fonts\\palab.ttf'
p1149
sg21
g22
sbag7
(g8
g9
NtRp1150
(dp1151
g12
g25
sg14
S'Utsaah'
p1152
sg16
I700
sg17
g13
sg18
g13
sg19
S'C:\\Windows\\Fonts\\utsaahbi.ttf'
p1153
sg21
g22
sbag7
(g8
g9
NtRp1154
(dp1155
g12
g25
sg14
S'LilyUPC'
p1156
sg16
I700
sg17
g13
sg18
g13
sg19
S'c:\\windows\\fonts\\upclbi.ttf'
p1157
sg21
g22
sbag7
(g8
g9
NtRp1158
(dp1159
g12
g13
sg14
S'FrankRuehl'
p1160
sg16
I400
sg17
g13
sg18
g13
sg19
S'c:\\windows\\fonts\\frank.ttf'
p1161
sg21
g22
sbag7
(g8
g9
NtRp1162
(dp1163
g12
g13
sg14
S'Raavi'
p1164
sg16
I700
sg17
g13
sg18
g13
sg19
S'C:\\Windows\\Fonts\\raavib.ttf'
p1165
sg21
g22
sbag7
(g8
g9
NtRp1166
(dp1167
g12
g13
sg14
S'Microsoft New Tai Lue'
p1168
sg16
I400
sg17
g13
sg18
g13
sg19
S'C:\\Windows\\Fonts\\ntailu.ttf'
p1169
sg21
g22
sbag7
(g8
g9
NtRp1170
(dp1171
g12
g13
sg14
S'DejaVu Sans'
p1172
sg16
I700
sg17
g13
sg18
g13
sg19
S'C:\\Windows\\Fonts\\DejaVuSans-Bold.ttf'
p1173
sg21
g22
sbag7
(g8
g9
NtRp1174
(dp1175
g12
g25
sg14
S'Consolas'
p1176
sg16
I700
sg17
g13
sg18
g13
sg19
S'c:\\windows\\fonts\\consolaz.ttf'
p1177
sg21
g22
sbag7
(g8
g9
NtRp1178
(dp1179
g12
g25
sg14
S'EucrosiaUPC'
p1180
sg16
I400
sg17
g13
sg18
g13
sg19
S'c:\\windows\\fonts\\upcei.ttf'
p1181
sg21
g22
sbag7
(g8
g9
NtRp1182
(dp1183
g12
g13
sg14
S'KodchiangUPC'
p1184
sg16
I700
sg17
g13
sg18
g13
sg19
S'c:\\windows\\fonts\\upckb.ttf'
p1185
sg21
g22
sbag7
(g8
g9
NtRp1186
(dp1187
g12
g13
sg14
S'Vani'
p1188
sg16
I700
sg17
g13
sg18
g13
sg19
S'C:\\Windows\\Fonts\\Vanib.ttf'
p1189
sg21
g22
sbag7
(g8
g9
NtRp1190
(dp1191
g12
g25
sg14
S'Corbel'
p1192
sg16
I400
sg17
g13
sg18
g13
sg19
S'C:\\Windows\\Fonts\\corbeli.ttf'
p1193
sg21
g22
sbag7
(g8
g9
NtRp1194
(dp1195
g12
g25
sg14
S'DejaVu Serif'
p1196
sg16
I700
sg17
g13
sg18
g13
sg19
S'c:\\windows\\fonts\\dejavuserif-bolditalic.ttf'
p1197
sg21
g22
sbag7
(g8
g9
NtRp1198
(dp1199
g12
g13
sg14
S'Gisha'
p1200
sg16
I700
sg17
g13
sg18
g13
sg19
S'C:\\Windows\\Fonts\\gishabd.ttf'
p1201
sg21
g22
sbag7
(g8
g9
NtRp1202
(dp1203
g12
g25
sg14
S'Arimo'
p1204
sg16
I700
sg17
g13
sg18
g13
sg19
S'C:\\Windows\\Fonts\\Arimo-BoldItalic.ttf'
p1205
sg21
g22
sbag7
(g8
g9
NtRp1206
(dp1207
g12
g13
sg14
S'Estrangelo Edessa'
p1208
sg16
I400
sg17
g13
sg18
g13
sg19
S'C:\\Windows\\Fonts\\estre.ttf'
p1209
sg21
g22
sbag7
(g8
g9
NtRp1210
(dp1211
g12
g13
sg14
S'Nyala'
p1212
sg16
I400
sg17
g13
sg18
g13
sg19
S'c:\\windows\\fonts\\nyala.ttf'
p1213
sg21
g22
sbag7
(g8
g9
NtRp1214
(dp1215
g12
g13
sg14
S'Ubuntu'
p1216
sg16
I700
sg17
g13
sg18
g13
sg19
S'c:\\windows\\fonts\\ubuntu-b.ttf'
p1217
sg21
g22
sbag7
(g8
g9
NtRp1218
(dp1219
g12
g13
sg14
S'CordiaUPC'
p1220
sg16
I700
sg17
g13
sg18
g13
sg19
S'c:\\windows\\fonts\\cordiaub.ttf'
p1221
sg21
g22
sbag7
(g8
g9
NtRp1222
(dp1223
g12
g13
sg14
S'DejaVu Sans'
p1224
sg16
I400
sg17
g240
sg18
g13
sg19
S'C:\\Windows\\Fonts\\DejaVuSansCondensed.ttf'
p1225
sg21
g22
sbag7
(g8
g9
NtRp1226
(dp1227
g12
g25
sg14
S'Gentium Basic'
p1228
sg16
I400
sg17
g13
sg18
g13
sg19
S'c:\\windows\\fonts\\genbasi.ttf'
p1229
sg21
g22
sbag7
(g8
g9
NtRp1230
(dp1231
g12
g13
sg14
S'Georgia'
p1232
sg16
I400
sg17
g13
sg18
g13
sg19
S'C:\\Windows\\Fonts\\georgia.ttf'
p1233
sg21
g22
sbag7
(g8
g9
NtRp1234
(dp1235
g12
g13
sg14
S'Ubuntu'
p1236
sg16
I700
sg17
g13
sg18
g13
sg19
S'C:\\Windows\\Fonts\\Ubuntu-B.ttf'
p1237
sg21
g22
sbag7
(g8
g9
NtRp1238
(dp1239
g12
g13
sg14
S'AngsanaUPC'
p1240
sg16
I700
sg17
g13
sg18
g13
sg19
S'C:\\Windows\\Fonts\\angsaub.ttf'
p1241
sg21
g22
sbag7
(g8
g9
NtRp1242
(dp1243
g12
g13
sg14
S'Lao UI'
p1244
sg16
I700
sg17
g13
sg18
g13
sg19
S'C:\\Windows\\Fonts\\LaoUIb.ttf'
p1245
sg21
g22
sbag7
(g8
g9
NtRp1246
(dp1247
g12
g25
sg14
S'CordiaUPC'
p1248
sg16
I400
sg17
g13
sg18
g13
sg19
S'c:\\windows\\fonts\\cordiaui.ttf'
p1249
sg21
g22
sbag7
(g8
g9
NtRp1250
(dp1251
g12
g25
sg14
S'Ubuntu'
p1252
sg16
I200
sg17
g13
sg18
g13
sg19
S'C:\\Windows\\Fonts\\Ubuntu-LI.ttf'
p1253
sg21
g22
sbag7
(g8
g9
NtRp1254
(dp1255
g12
g13
sg14
S'Shonar Bangla'
p1256
sg16
I700
sg17
g13
sg18
g13
sg19
S'C:\\Windows\\Fonts\\Shonarb.ttf'
p1257
sg21
g22
sbag7
(g8
g9
NtRp1258
(dp1259
g12
g25
sg14
S'Ubuntu Mono'
p1260
sg16
I400
sg17
g13
sg18
g13
sg19
S'c:\\windows\\fonts\\ubuntumono-ri.ttf'
p1261
sg21
g22
sbag7
(g8
g9
NtRp1262
(dp1263
g12
g13
sg14
S'Webdings'
p1264
sg16
I400
sg17
g13
sg18
g13
sg19
S'C:\\Windows\\Fonts\\webdings.ttf'
p1265
sg21
g22
sbag7
(g8
g9
NtRp1266
(dp1267
g12
g13
sg14
S'David'
p1268
sg16
I400
sg17
g13
sg18
g13
sg19
S'c:\\windows\\fonts\\david.ttf'
p1269
sg21
g22
sbag7
(g8
g9
NtRp1270
(dp1271
g12
g25
sg14
S'Calibri'
p1272
sg16
I200
sg17
g13
sg18
g13
sg19
S'C:\\Windows\\Fonts\\calibrili.ttf'
p1273
sg21
g22
sbag7
(g8
g9
NtRp1274
(dp1275
g12
g13
sg14
S'DejaVu Serif'
p1276
sg16
I400
sg17
g13
sg18
g13
sg19
S'c:\\windows\\fonts\\dejavuserif.ttf'
p1277
sg21
g22
sbag7
(g8
g9
NtRp1278
(dp1279
g12
g25
sg14
S'Gentium Book Basic'
p1280
sg16
I400
sg17
g13
sg18
g13
sg19
S'C:\\Windows\\Fonts\\GenBkBasI.ttf'
p1281
sg21
g22
sbag7
(g8
g9
NtRp1282
(dp1283
g12
g13
sg14
S'Andalus'
p1284
sg16
I400
sg17
g13
sg18
g13
sg19
S'C:\\Windows\\Fonts\\andlso.ttf'
p1285
sg21
g22
sbag7
(g8
g9
NtRp1286
(dp1287
g12
g13
sg14
S'Vani'
p1288
sg16
I700
sg17
g13
sg18
g13
sg19
S'c:\\windows\\fonts\\vanib.ttf'
p1289
sg21
g22
sbag7
(g8
g9
NtRp1290
(dp1291
g12
g13
sg14
S'Ubuntu Mono'
p1292
sg16
I700
sg17
g13
sg18
g13
sg19
S'c:\\windows\\fonts\\ubuntumono-b.ttf'
p1293
sg21
g22
sbag7
(g8
g9
NtRp1294
(dp1295
g12
g13
sg14
S'Kokila'
p1296
sg16
I400
sg17
g13
sg18
g13
sg19
S'C:\\Windows\\Fonts\\kokila.ttf'
p1297
sg21
g22
sbag7
(g8
g9
NtRp1298
(dp1299
g12
g13
sg14
S'Verdana'
p1300
sg16
I400
sg17
g13
sg18
g13
sg19
S'C:\\Windows\\Fonts\\verdana.ttf'
p1301
sg21
g22
sbag7
(g8
g9
NtRp1302
(dp1303
g12
g25
sg14
S'LilyUPC'
p1304
sg16
I400
sg17
g13
sg18
g13
sg19
S'c:\\windows\\fonts\\upcli.ttf'
p1305
sg21
g22
sbag7
(g8
g9
NtRp1306
(dp1307
g12
g13
sg14
S'Mongolian Baiti'
p1308
sg16
I400
sg17
g13
sg18
g13
sg19
S'c:\\windows\\fonts\\monbaiti.ttf'
p1309
sg21
g22
sbag7
(g8
g9
NtRp1310
(dp1311
g12
g13
sg14
S'Microsoft New Tai Lue'
p1312
sg16
I700
sg17
g13
sg18
g13
sg19
S'C:\\Windows\\Fonts\\ntailub.ttf'
p1313
sg21
g22
sbag7
(g8
g9
NtRp1314
(dp1315
g12
g25
sg14
S'Browallia New'
p1316
sg16
I700
sg17
g13
sg18
g13
sg19
S'c:\\windows\\fonts\\browaz.ttf'
p1317
sg21
g22
sbag7
(g8
g9
NtRp1318
(dp1319
g12
g13
sg14
S'CordiaUPC'
p1320
sg16
I400
sg17
g13
sg18
g13
sg19
S'c:\\windows\\fonts\\cordiau.ttf'
p1321
sg21
g22
sbag7
(g8
g9
NtRp1322
(dp1323
g12
g13
sg14
S'Gentium Basic'
p1324
sg16
I700
sg17
g13
sg18
g13
sg19
S'C:\\Windows\\Fonts\\GenBasB.ttf'
p1325
sg21
g22
sbag7
(g8
g9
NtRp1326
(dp1327
g12
g13
sg14
S'Tahoma'
p1328
sg16
I400
sg17
g13
sg18
g13
sg19
S'C:\\Windows\\Fonts\\tahoma.ttf'
p1329
sg21
g22
sbag7
(g8
g9
NtRp1330
(dp1331
g12
g13
sg14
S'DejaVu Serif'
p1332
sg16
I700
sg17
g13
sg18
g13
sg19
S'C:\\Windows\\Fonts\\DejaVuSerif-Bold.ttf'
p1333
sg21
g22
sbag7
(g8
g9
NtRp1334
(dp1335
g12
g25
sg14
S'Angsana New'
p1336
sg16
I700
sg17
g13
sg18
g13
sg19
S'c:\\windows\\fonts\\angsaz.ttf'
p1337
sg21
g22
sbag7
(g8
g9
NtRp1338
(dp1339
g12
g13
sg14
S'Lao UI'
p1340
sg16
I400
sg17
g13
sg18
g13
sg19
S'C:\\Windows\\Fonts\\LaoUI.ttf'
p1341
sg21
g22
sbag7
(g8
g9
NtRp1342
(dp1343
g12
g30
sg14
S'DejaVu Sans'
p1344
sg16
I400
sg17
g13
sg18
g13
sg19
S'C:\\Windows\\Fonts\\DejaVuSans-Oblique.ttf'
p1345
sg21
g22
sbag7
(g8
g9
NtRp1346
(dp1347
g12
g13
sg14
S'DejaVu Sans'
p1348
sg16
I700
sg17
g13
sg18
g13
sg19
S'c:\\windows\\fonts\\dejavusans-bold.ttf'
p1349
sg21
g22
sbag7
(g8
g9
NtRp1350
(dp1351
g12
g25
sg14
S'DejaVu Serif'
p1352
sg16
I400
sg17
g240
sg18
g13
sg19
S'C:\\Windows\\Fonts\\DejaVuSerifCondensed-Italic.ttf'
p1353
sg21
g22
sbag7
(g8
g9
NtRp1354
(dp1355
g12
g30
sg14
S'DejaVu Sans'
p1356
sg16
I700
sg17
g13
sg18
g13
sg19
S'c:\\windows\\fonts\\dejavusans-boldoblique.ttf'
p1357
sg21
g22
sbag7
(g8
g9
NtRp1358
(dp1359
g12
g13
sg14
S'Lao UI'
p1360
sg16
I700
sg17
g13
sg18
g13
sg19
S'c:\\windows\\fonts\\laouib.ttf'
p1361
sg21
g22
sbag7
(g8
g9
NtRp1362
(dp1363
g12
g13
sg14
S'Palatino Linotype'
p1364
sg16
I400
sg17
g13
sg18
g13
sg19
S'c:\\windows\\fonts\\pala.ttf'
p1365
sg21
g22
sbag7
(g8
g9
NtRp1366
(dp1367
g12
g13
sg14
S'DejaVu Serif'
p1368
sg16
I700
sg17
g240
sg18
g13
sg19
S'c:\\windows\\fonts\\dejavuserifcondensed-bold.ttf'
p1369
sg21
g22
sbag7
(g8
g9
NtRp1370
(dp1371
g12
g13
sg14
S'Rod'
p1372
sg16
I400
sg17
g13
sg18
g13
sg19
S'c:\\windows\\fonts\\rod.ttf'
p1373
sg21
g22
sbag7
(g8
g9
NtRp1374
(dp1375
g12
g13
sg14
S'Segoe UI Symbol'
p1376
sg16
I400
sg17
g13
sg18
g13
sg19
S'c:\\windows\\fonts\\seguisym.ttf'
p1377
sg21
g22
sbag7
(g8
g9
NtRp1378
(dp1379
g12
g25
sg14
S'Candara'
p1380
sg16
I700
sg17
g13
sg18
g13
sg19
S'c:\\windows\\fonts\\candaraz.ttf'
p1381
sg21
g22
sbag7
(g8
g9
NtRp1382
(dp1383
g12
g13
sg14
S'AngsanaUPC'
p1384
sg16
I400
sg17
g13
sg18
g13
sg19
S'c:\\windows\\fonts\\angsau.ttf'
p1385
sg21
g22
sbag7
(g8
g9
NtRp1386
(dp1387
g12
g13
sg14
S'Khmer UI'
p1388
sg16
I700
sg17
g13
sg18
g13
sg19
S'C:\\Windows\\Fonts\\KhmerUIb.ttf'
p1389
sg21
g22
sbag7
(g8
g9
NtRp1390
(dp1391
g12
g13
sg14
S'Georgia'
p1392
sg16
I700
sg17
g13
sg18
g13
sg19
S'c:\\windows\\fonts\\georgiab.ttf'
p1393
sg21
g22
sbag7
(g8
g9
NtRp1394
(dp1395
g12
g13
sg14
S'DejaVu Serif'
p1396
sg16
I400
sg17
g240
sg18
g13
sg19
S'C:\\Windows\\Fonts\\DejaVuSerifCondensed.ttf'
p1397
sg21
g22
sbag7
(g8
g9
NtRp1398
(dp1399
g12
g25
sg14
S'DejaVu Serif'
p1400
sg16
I400
sg17
g13
sg18
g13
sg19
S'C:\\Windows\\Fonts\\DejaVuSerif-Italic.ttf'
p1401
sg21
g22
sbag7
(g8
g9
NtRp1402
(dp1403
g12
g25
sg14
S'Arimo'
p1404
sg16
I400
sg17
g13
sg18
g13
sg19
S'c:\\windows\\fonts\\arimo-italic.ttf'
p1405
sg21
g22
sbag7
(g8
g9
NtRp1406
(dp1407
g12
g13
sg14
S'Arimo'
p1408
sg16
I700
sg17
g13
sg18
g13
sg19
S'c:\\windows\\fonts\\arimo-bold.ttf'
p1409
sg21
g22
sbag7
(g8
g9
NtRp1410
(dp1411
g12
g13
sg14
S'Ubuntu'
p1412
sg16
I200
sg17
g13
sg18
g13
sg19
S'c:\\windows\\fonts\\ubuntu-l.ttf'
p1413
sg21
g22
sbag7
(g8
g9
NtRp1414
(dp1415
g12
g13
sg14
S'DejaVu Sans'
p1416
sg16
I200
sg17
g13
sg18
g13
sg19
S'c:\\windows\\fonts\\dejavusans-extralight.ttf'
p1417
sg21
g22
sbag7
(g8
g9
NtRp1418
(dp1419
g12
g13
sg14
S'Arimo'
p1420
sg16
I400
sg17
g13
sg18
g13
sg19
S'C:\\Windows\\Fonts\\Arimo-Regular.ttf'
p1421
sg21
g22
sbag7
(g8
g9
NtRp1422
(dp1423
g12
g13
sg14
S'Vrinda'
p1424
sg16
I400
sg17
g13
sg18
g13
sg19
S'C:\\Windows\\Fonts\\vrinda.ttf'
p1425
sg21
g22
sbag7
(g8
g9
NtRp1426
(dp1427
g12
g13
sg14
S'Iskoola Pota'
p1428
sg16
I700
sg17
g13
sg18
g13
sg19
S'C:\\Windows\\Fonts\\iskpotab.ttf'
p1429
sg21
g22
sbag7
(g8
g9
NtRp1430
(dp1431
g12
g13
sg14
S'Candara'
p1432
sg16
I400
sg17
g13
sg18
g13
sg19
S'C:\\Windows\\Fonts\\Candara.ttf'
p1433
sg21
g22
sbag7
(g8
g9
NtRp1434
(dp1435
g12
g13
sg14
S'DejaVu Sans'
p1436
sg16
I400
sg17
g240
sg18
g13
sg19
S'c:\\windows\\fonts\\dejavusanscondensed.ttf'
p1437
sg21
g22
sbag7
(g8
g9
NtRp1438
(dp1439
g12
g25
sg14
S'KodchiangUPC'
p1440
sg16
I400
sg17
g13
sg18
g13
sg19
S'c:\\windows\\fonts\\upcki.ttf'
p1441
sg21
g22
sbag7
(g8
g9
NtRp1442
(dp1443
g12
g25
sg14
S'Ubuntu'
p1444
sg16
I500
sg17
g13
sg18
g13
sg19
S'c:\\windows\\fonts\\ubuntu-mi.ttf'
p1445
sg21
g22
sbag7
(g8
g9
NtRp1446
(dp1447
g12
g25
sg14
S'Gentium Basic'
p1448
sg16
I700
sg17
g13
sg18
g13
sg19
S'C:\\Windows\\Fonts\\GenBasBI.ttf'
p1449
sg21
g22
sbag7
(g8
g9
NtRp1450
(dp1451
g12
g13
sg14
S'Plantagenet Cherokee'
p1452
sg16
I400
sg17
g13
sg18
g13
sg19
S'c:\\windows\\fonts\\plantc.ttf'
p1453
sg21
g22
sbag7
(g8
g9
NtRp1454
(dp1455
g12
g13
sg14
S'Ubuntu Mono'
p1456
sg16
I400
sg17
g13
sg18
g13
sg19
S'C:\\Windows\\Fonts\\UbuntuMono-R.ttf'
p1457
sg21
g22
sbag7
(g8
g9
NtRp1458
(dp1459
g12
g13
sg14
S'Latha'
p1460
sg16
I700
sg17
g13
sg18
g13
sg19
S'C:\\Windows\\Fonts\\lathab.ttf'
p1461
sg21
g22
sbag7
(g8
g9
NtRp1462
(dp1463
g12
g13
sg14
S'Gabriola'
p1464
sg16
I400
sg17
g13
sg18
g13
sg19
S'c:\\windows\\fonts\\gabriola.ttf'
p1465
sg21
g22
sbag7
(g8
g9
NtRp1466
(dp1467
g12
g13
sg14
S'Gentium Basic'
p1468
sg16
I700
sg17
g13
sg18
g13
sg19
S'c:\\windows\\fonts\\genbasb.ttf'
p1469
sg21
g22
sbag7
(g8
g9
NtRp1470
(dp1471
g12
g25
sg14
S'Ubuntu'
p1472
sg16
I500
sg17
g13
sg18
g13
sg19
S'C:\\Windows\\Fonts\\Ubuntu-MI.ttf'
p1473
sg21
g22
sbag7
(g8
g9
NtRp1474
(dp1475
g12
g13
sg14
S'Gentium Book Basic'
p1476
sg16
I700
sg17
g13
sg18
g13
sg19
S'c:\\windows\\fonts\\genbkbasb.ttf'
p1477
sg21
g22
sbag7
(g8
g9
NtRp1478
(dp1479
g12
g30
sg14
S'DejaVu Sans Mono'
p1480
sg16
I700
sg17
g13
sg18
g13
sg19
S'C:\\Windows\\Fonts\\DejaVuSansMono-BoldOblique.ttf'
p1481
sg21
g22
sbag7
(g8
g9
NtRp1482
(dp1483
g12
g13
sg14
S'DejaVu Sans'
p1484
sg16
I700
sg17
g240
sg18
g13
sg19
S'C:\\Windows\\Fonts\\DejaVuSansCondensed-Bold.ttf'
p1485
sg21
g22
sbag7
(g8
g9
NtRp1486
(dp1487
g12
g25
sg14
S'Ubuntu Mono'
p1488
sg16
I400
sg17
g13
sg18
g13
sg19
S'C:\\Windows\\Fonts\\UbuntuMono-RI.ttf'
p1489
sg21
g22
sbag7
(g8
g9
NtRp1490
(dp1491
g12
g13
sg14
S'Khmer UI'
p1492
sg16
I400
sg17
g13
sg18
g13
sg19
S'C:\\Windows\\Fonts\\KhmerUI.ttf'
p1493
sg21
g22
sbag7
(g8
g9
NtRp1494
(dp1495
g12
g30
sg14
S'DejaVu Sans Mono'
p1496
sg16
I400
sg17
g13
sg18
g13
sg19
S'c:\\windows\\fonts\\dejavusansmono-oblique.ttf'
p1497
sg21
g22
sbasS'defaultFamily'
p1498
(dp1499
S'afm'
p1500
S'Helvetica'
p1501
sS'ttf'
p1502
S'Bitstream Vera Sans'
p1503
ssS'ttffiles'
p1504
(lp1505
S'E:\\Programmatuur\\WinPython_versions\\WinPython-PyGaze-0.5.1\\python-2.7.3\\lib\\site-packages\\matplotlib\\mpl-data\\fonts\\ttf\\cmtt10.ttf'
p1506
aS'E:\\Programmatuur\\WinPython_versions\\WinPython-PyGaze-0.5.1\\python-2.7.3\\lib\\site-packages\\matplotlib\\mpl-data\\fonts\\ttf\\STIXNonUniIta.ttf'
p1507
aS'E:\\Programmatuur\\WinPython_versions\\WinPython-PyGaze-0.5.1\\python-2.7.3\\lib\\site-packages\\matplotlib\\mpl-data\\fonts\\ttf\\VeraBI.ttf'
p1508
aS'E:\\Programmatuur\\WinPython_versions\\WinPython-PyGaze-0.5.1\\python-2.7.3\\lib\\site-packages\\matplotlib\\mpl-data\\fonts\\ttf\\cmex10.ttf'
p1509
aS'E:\\Programmatuur\\WinPython_versions\\WinPython-PyGaze-0.5.1\\python-2.7.3\\lib\\site-packages\\matplotlib\\mpl-data\\fonts\\ttf\\STIXSizTwoSymReg.ttf'
p1510
aS'E:\\Programmatuur\\WinPython_versions\\WinPython-PyGaze-0.5.1\\python-2.7.3\\lib\\site-packages\\matplotlib\\mpl-data\\fonts\\ttf\\VeraBd.ttf'
p1511
aS'E:\\Programmatuur\\WinPython_versions\\WinPython-PyGaze-0.5.1\\python-2.7.3\\lib\\site-packages\\matplotlib\\mpl-data\\fonts\\ttf\\STIXSizFiveSymReg.ttf'
p1512
aS'E:\\Programmatuur\\WinPython_versions\\WinPython-PyGaze-0.5.1\\python-2.7.3\\lib\\site-packages\\matplotlib\\mpl-data\\fonts\\ttf\\STIXGeneralBol.ttf'
p1513
aS'E:\\Programmatuur\\WinPython_versions\\WinPython-PyGaze-0.5.1\\python-2.7.3\\lib\\site-packages\\matplotlib\\mpl-data\\fonts\\ttf\\STIXSizFourSymReg.ttf'
p1514
aS'E:\\Programmatuur\\WinPython_versions\\WinPython-PyGaze-0.5.1\\python-2.7.3\\lib\\site-packages\\matplotlib\\mpl-data\\fonts\\ttf\\STIXGeneral.ttf'
p1515
aS'E:\\Programmatuur\\WinPython_versions\\WinPython-PyGaze-0.5.1\\python-2.7.3\\lib\\site-packages\\matplotlib\\mpl-data\\fonts\\ttf\\cmss10.ttf'
p1516
aS'E:\\Programmatuur\\WinPython_versions\\WinPython-PyGaze-0.5.1\\python-2.7.3\\lib\\site-packages\\matplotlib\\mpl-data\\fonts\\ttf\\STIXGeneralBolIta.ttf'
p1517
aS'E:\\Programmatuur\\WinPython_versions\\WinPython-PyGaze-0.5.1\\python-2.7.3\\lib\\site-packages\\matplotlib\\mpl-data\\fonts\\ttf\\VeraIt.ttf'
p1518
aS'E:\\Programmatuur\\WinPython_versions\\WinPython-PyGaze-0.5.1\\python-2.7.3\\lib\\site-packages\\matplotlib\\mpl-data\\fonts\\ttf\\VeraMoIt.ttf'
p1519
aS'E:\\Programmatuur\\WinPython_versions\\WinPython-PyGaze-0.5.1\\python-2.7.3\\lib\\site-packages\\matplotlib\\mpl-data\\fonts\\ttf\\cmr10.ttf'
p1520
aS'E:\\Programmatuur\\WinPython_versions\\WinPython-PyGaze-0.5.1\\python-2.7.3\\lib\\site-packages\\matplotlib\\mpl-data\\fonts\\ttf\\STIXNonUni.ttf'
p1521
aS'E:\\Programmatuur\\WinPython_versions\\WinPython-PyGaze-0.5.1\\python-2.7.3\\lib\\site-packages\\matplotlib\\mpl-data\\fonts\\ttf\\cmsy10.ttf'
p1522
aS'E:\\Programmatuur\\WinPython_versions\\WinPython-PyGaze-0.5.1\\python-2.7.3\\lib\\site-packages\\matplotlib\\mpl-data\\fonts\\ttf\\VeraMoBI.ttf'
p1523
aS'E:\\Programmatuur\\WinPython_versions\\WinPython-PyGaze-0.5.1\\python-2.7.3\\lib\\site-packages\\matplotlib\\mpl-data\\fonts\\ttf\\STIXSizThreeSymReg.ttf'
p1524
aS'E:\\Programmatuur\\WinPython_versions\\WinPython-PyGaze-0.5.1\\python-2.7.3\\lib\\site-packages\\matplotlib\\mpl-data\\fonts\\ttf\\STIXSizFourSymBol.ttf'
p1525
aS'E:\\Programmatuur\\WinPython_versions\\WinPython-PyGaze-0.5.1\\python-2.7.3\\lib\\site-packages\\matplotlib\\mpl-data\\fonts\\ttf\\STIXNonUniBolIta.ttf'
p1526
aS'E:\\Programmatuur\\WinPython_versions\\WinPython-PyGaze-0.5.1\\python-2.7.3\\lib\\site-packages\\matplotlib\\mpl-data\\fonts\\ttf\\VeraMono.ttf'
p1527
aS'E:\\Programmatuur\\WinPython_versions\\WinPython-PyGaze-0.5.1\\python-2.7.3\\lib\\site-packages\\matplotlib\\mpl-data\\fonts\\ttf\\VeraSe.ttf'
p1528
aS'E:\\Programmatuur\\WinPython_versions\\WinPython-PyGaze-0.5.1\\python-2.7.3\\lib\\site-packages\\matplotlib\\mpl-data\\fonts\\ttf\\cmmi10.ttf'
p1529
aS'E:\\Programmatuur\\WinPython_versions\\WinPython-PyGaze-0.5.1\\python-2.7.3\\lib\\site-packages\\matplotlib\\mpl-data\\fonts\\ttf\\Vera.ttf'
p1530
aS'E:\\Programmatuur\\WinPython_versions\\WinPython-PyGaze-0.5.1\\python-2.7.3\\lib\\site-packages\\matplotlib\\mpl-data\\fonts\\ttf\\STIXSizTwoSymBol.ttf'
p1531
aS'E:\\Programmatuur\\WinPython_versions\\WinPython-PyGaze-0.5.1\\python-2.7.3\\lib\\site-packages\\matplotlib\\mpl-data\\fonts\\ttf\\STIXSizThreeSymBol.ttf'
p1532
aS'E:\\Programmatuur\\WinPython_versions\\WinPython-PyGaze-0.5.1\\python-2.7.3\\lib\\site-packages\\matplotlib\\mpl-data\\fonts\\ttf\\STIXGeneralItalic.ttf'
p1533
aS'E:\\Programmatuur\\WinPython_versions\\WinPython-PyGaze-0.5.1\\python-2.7.3\\lib\\site-packages\\matplotlib\\mpl-data\\fonts\\ttf\\STIXSizOneSymReg.ttf'
p1534
aS'E:\\Programmatuur\\WinPython_versions\\WinPython-PyGaze-0.5.1\\python-2.7.3\\lib\\site-packages\\matplotlib\\mpl-data\\fonts\\ttf\\STIXSizOneSymBol.ttf'
p1535
aS'E:\\Programmatuur\\WinPython_versions\\WinPython-PyGaze-0.5.1\\python-2.7.3\\lib\\site-packages\\matplotlib\\mpl-data\\fonts\\ttf\\STIXNonUniBol.ttf'
p1536
aS'E:\\Programmatuur\\WinPython_versions\\WinPython-PyGaze-0.5.1\\python-2.7.3\\lib\\site-packages\\matplotlib\\mpl-data\\fonts\\ttf\\cmb10.ttf'
p1537
aS'E:\\Programmatuur\\WinPython_versions\\WinPython-PyGaze-0.5.1\\python-2.7.3\\lib\\site-packages\\matplotlib\\mpl-data\\fonts\\ttf\\VeraMoBd.ttf'
p1538
aS'E:\\Programmatuur\\WinPython_versions\\WinPython-PyGaze-0.5.1\\python-2.7.3\\lib\\site-packages\\matplotlib\\mpl-data\\fonts\\ttf\\VeraSeBd.ttf'
p1539
aVC:\u005cWindows\u005cFonts\u005ccour.ttf
p1540
aVc:\u005cwindows\u005cfonts\u005cbrowai.ttf
p1541
aVc:\u005cwindows\u005cfonts\u005ccambriab.ttf
p1542
aVC:\u005cWindows\u005cFonts\u005cverdanaz.ttf
p1543
aVC:\u005cWindows\u005cFonts\u005cpalabi.ttf
p1544
aVc:\u005cwindows\u005cfonts\u005cupcji.ttf
p1545
aVC:\u005cWindows\u005cFonts\u005ctaileb.ttf
p1546
aVc:\u005cwindows\u005cfonts\u005ctrebucbd.ttf
p1547
aVC:\u005cWindows\u005cFonts\u005ctahomabd.ttf
p1548
aVC:\u005cWindows\u005cFonts\u005craavi.ttf
p1549
aVc:\u005cwindows\u005cfonts\u005cbrowau.ttf
p1550
aVc:\u005cwindows\u005cfonts\u005csimkai.ttf
p1551
aVc:\u005cwindows\u005cfonts\u005ctaileb.ttf
p1552
aVC:\u005cWindows\u005cFonts\u005cUbuntu-R.ttf
p1553
aVc:\u005cwindows\u005cfonts\u005ctrebucbi.ttf
p1554
aVc:\u005cwindows\u005cfonts\u005csegoeuiz.ttf
p1555
aVc:\u005cwindows\u005cfonts\u005cbrowauz.ttf
p1556
aVC:\u005cWindows\u005cFonts\u005cmalgunbd.ttf
p1557
aVC:\u005cWindows\u005cFonts\u005cdokchamp.ttf
p1558
aVc:\u005cwindows\u005cfonts\u005cariali.ttf
p1559
aVc:\u005cwindows\u005cfonts\u005ckhmeruib.ttf
p1560
aVC:\u005cWindows\u005cFonts\u005cDejaVuSansCondensed-BoldOblique.ttf
p1561
aVc:\u005cwindows\u005cfonts\u005cgenbkbasbi.ttf
p1562
aVc:\u005cwindows\u005cfonts\u005csimpo.ttf
p1563
aVc:\u005cwindows\u005cfonts\u005carabtype.ttf
p1564
aVC:\u005cWindows\u005cFonts\u005ckartikab.ttf
p1565
aVc:\u005cwindows\u005cfonts\u005ckhmerui.ttf
p1566
aVc:\u005cwindows\u005cfonts\u005cseguisb.ttf
p1567
aVC:\u005cWindows\u005cFonts\u005ckokilab.ttf
p1568
aVC:\u005cWindows\u005cFonts\u005ccalibril.ttf
p1569
aVC:\u005cWindows\u005cFonts\u005ccordiab.ttf
p1570
aVC:\u005cWindows\u005cFonts\u005cgautamib.ttf
p1571
aVC:\u005cWindows\u005cFonts\u005ceuphemia.ttf
p1572
aVC:\u005cWindows\u005cFonts\u005cgeorgiai.ttf
p1573
aVC:\u005cWindows\u005cFonts\u005cleelawdb.ttf
p1574
aVc:\u005cwindows\u005cfonts\u005cdejavuserif-bold.ttf
p1575
aVC:\u005cWindows\u005cFonts\u005chimalaya.ttf
p1576
aVc:\u005cwindows\u005cfonts\u005ctahomabd.ttf
p1577
aVC:\u005cWindows\u005cFonts\u005ccordia.ttf
p1578
aVc:\u005cwindows\u005cfonts\u005ckokilab.ttf
p1579
aVc:\u005cwindows\u005cfonts\u005cgautamib.ttf
p1580
aVc:\u005cwindows\u005cfonts\u005cdejavusanscondensed-bold.ttf
p1581
aVc:\u005cwindows\u005cfonts\u005cconsola.ttf
p1582
aVC:\u005cWindows\u005cFonts\u005cangsai.ttf
p1583
aVC:\u005cWindows\u005cFonts\u005cupcfb.ttf
p1584
aVc:\u005cwindows\u005cfonts\u005carialbd.ttf
p1585
aVC:\u005cWindows\u005cFonts\u005cmajalla.ttf
p1586
aVC:\u005cWindows\u005cFonts\u005cDejaVuSans-BoldOblique.ttf
p1587
aVC:\u005cWindows\u005cFonts\u005cGenBkBasB.ttf
p1588
aVc:\u005cwindows\u005cfonts\u005cmsyh.ttf
p1589
aVC:\u005cWindows\u005cFonts\u005ctunga.ttf
p1590
aVc:\u005cwindows\u005cfonts\u005cverdanaz.ttf
p1591
aVC:\u005cWindows\u005cFonts\u005ccambriaz.ttf
p1592
aVC:\u005cWindows\u005cFonts\u005cupcibi.ttf
p1593
aVc:\u005cwindows\u005cfonts\u005cmsjhbd.ttf
p1594
aVC:\u005cWindows\u005cFonts\u005cDejaVuSansMono.ttf
p1595
aVc:\u005cwindows\u005cfonts\u005csegoeui.ttf
p1596
aVC:\u005cWindows\u005cFonts\u005clvnmbd.ttf
p1597
aVc:\u005cwindows\u005cfonts\u005carimo-regular.ttf
p1598
aVC:\u005cWindows\u005cFonts\u005ctimesbd.ttf
p1599
aVC:\u005cWindows\u005cFonts\u005cmoolbor.ttf
p1600
aVC:\u005cWindows\u005cFonts\u005cmarlett.ttf
p1601
aVc:\u005cwindows\u005cfonts\u005cbrowab.ttf
p1602
aVc:\u005cwindows\u005cfonts\u005ccorbelb.ttf
p1603
aVc:\u005cwindows\u005cfonts\u005csimpbdo.ttf
p1604
aVC:\u005cWindows\u005cFonts\u005cDejaVuSans-ExtraLight.ttf
p1605
aVC:\u005cWindows\u005cFonts\u005cupcll.ttf
p1606
aVC:\u005cWindows\u005cFonts\u005cupcfbi.ttf
p1607
aVC:\u005cWindows\u005cFonts\u005cGenBkBasBI.ttf
p1608
aVC:\u005cWindows\u005cFonts\u005cconsola.ttf
p1609
aVC:\u005cWindows\u005cFonts\u005cvrindab.ttf
p1610
aVC:\u005cWindows\u005cFonts\u005ckalingab.ttf
p1611
aVC:\u005cWindows\u005cFonts\u005ccalibrii.ttf
p1612
aVc:\u005cwindows\u005cfonts\u005cubuntu-li.ttf
p1613
aVC:\u005cWindows\u005cFonts\u005cframdit.ttf
p1614
aVc:\u005cwindows\u005cfonts\u005cutsaahi.ttf
p1615
aVc:\u005cwindows\u005cfonts\u005cupcdi.ttf
p1616
aVC:\u005cWindows\u005cFonts\u005ckaiu.ttf
p1617
aVc:\u005cwindows\u005cfonts\u005cangsauz.ttf
p1618
aVc:\u005cwindows\u005cfonts\u005cvrindab.ttf
p1619
aVc:\u005cwindows\u005cfonts\u005cshonar.ttf
p1620
aVC:\u005cWindows\u005cFonts\u005ctrebucbi.ttf
p1621
aVc:\u005cwindows\u005cfonts\u005cverdanai.ttf
p1622
aVC:\u005cWindows\u005cFonts\u005cconstanb.ttf
p1623
aVc:\u005cwindows\u005cfonts\u005cutsaah.ttf
p1624
aVc:\u005cwindows\u005cfonts\u005cmsyhbd.ttf
p1625
aVc:\u005cwindows\u005cfonts\u005csymbol.ttf
p1626
aVc:\u005cwindows\u005cfonts\u005csylfaen.ttf
p1627
aVC:\u005cWindows\u005cFonts\u005ccalibriz.ttf
p1628
aVc:\u005cwindows\u005cfonts\u005cahronbd.ttf
p1629
aVc:\u005cwindows\u005cfonts\u005cutsaahb.ttf
p1630
aVC:\u005cWindows\u005cFonts\u005cupcjbi.ttf
p1631
aVc:\u005cwindows\u005cfonts\u005cgenbasbi.ttf
p1632
aVc:\u005cwindows\u005cfonts\u005cupcel.ttf
p1633
aVc:\u005cwindows\u005cfonts\u005cmoolbor.ttf
p1634
aVc:\u005cwindows\u005cfonts\u005cgenbkbasr.ttf
p1635
aVC:\u005cWindows\u005cFonts\u005cconstanz.ttf
p1636
aVc:\u005cwindows\u005cfonts\u005cupckl.ttf
p1637
aVc:\u005cwindows\u005cfonts\u005cangsaui.ttf
p1638
aVc:\u005cwindows\u005cfonts\u005cdejavusans-oblique.ttf
p1639
aVc:\u005cwindows\u005cfonts\u005cupcfi.ttf
p1640
aVC:\u005cWindows\u005cFonts\u005cframd.ttf
p1641
aVc:\u005cwindows\u005cfonts\u005ctaile.ttf
p1642
aVC:\u005cWindows\u005cFonts\u005cupckbi.ttf
p1643
aVC:\u005cWindows\u005cFonts\u005cUbuntuMono-B.ttf
p1644
aVc:\u005cwindows\u005cfonts\u005ccalibri.ttf
p1645
aVC:\u005cWindows\u005cFonts\u005csimfang.ttf
p1646
aVC:\u005cWindows\u005cFonts\u005cbrowab.ttf
p1647
aVc:\u005cwindows\u005cfonts\u005cgenbkbasi.ttf
p1648
aVC:\u005cWindows\u005cFonts\u005cimpact.ttf
p1649
aVc:\u005cwindows\u005cfonts\u005cubuntu-m.ttf
p1650
aVc:\u005cwindows\u005cfonts\u005cupcil.ttf
p1651
aVC:\u005cWindows\u005cFonts\u005cUbuntuMono-BI.ttf
p1652
aVC:\u005cWindows\u005cFonts\u005cupcel.ttf
p1653
aVC:\u005cWindows\u005cFonts\u005cwingding.ttf
p1654
aVc:\u005cwindows\u005cfonts\u005clatha.ttf
p1655
aVc:\u005cwindows\u005cfonts\u005clucon.ttf
p1656
aVC:\u005cWindows\u005cFonts\u005cmangalb.ttf
p1657
aVC:\u005cWindows\u005cFonts\u005ckartika.ttf
p1658
aVc:\u005cwindows\u005cfonts\u005cvani.ttf
p1659
aVc:\u005cwindows\u005cfonts\u005cdejavuserifcondensed.ttf
p1660
aVc:\u005cwindows\u005cfonts\u005cupcdl.ttf
p1661
aVC:\u005cWindows\u005cFonts\u005cupclb.ttf
p1662
aVC:\u005cWindows\u005cFonts\u005cGenBasI.ttf
p1663
aVC:\u005cWindows\u005cFonts\u005cl_10646.ttf
p1664
aVc:\u005cwindows\u005cfonts\u005cupckbi.ttf
p1665
aVc:\u005cwindows\u005cfonts\u005cubuntu-c.ttf
p1666
aVC:\u005cWindows\u005cFonts\u005cDejaVuSansMono-Oblique.ttf
p1667
aVc:\u005cwindows\u005cfonts\u005caparajbi.ttf
p1668
aVc:\u005cwindows\u005cfonts\u005cebrimabd.ttf
p1669
aVC:\u005cWindows\u005cFonts\u005csegoepr.ttf
p1670
aVC:\u005cWindows\u005cFonts\u005cmicross.ttf
p1671
aVC:\u005cWindows\u005cFonts\u005ckokilabi.ttf
p1672
aVC:\u005cWindows\u005cFonts\u005csegoeprb.ttf
p1673
aVC:\u005cWindows\u005cFonts\u005cupcfl.ttf
p1674
aVc:\u005cwindows\u005cfonts\u005cmriamc.ttf
p1675
aVc:\u005cwindows\u005cfonts\u005cupcii.ttf
p1676
aVC:\u005cWindows\u005cFonts\u005cDejaVuSerif.ttf
p1677
aVC:\u005cWindows\u005cFonts\u005cverdanai.ttf
p1678
aVC:\u005cWindows\u005cFonts\u005ccordiaz.ttf
p1679
aVc:\u005cwindows\u005cfonts\u005csegoepr.ttf
p1680
aVc:\u005cwindows\u005cfonts\u005cmicross.ttf
p1681
aVc:\u005cwindows\u005cfonts\u005ctimes.ttf
p1682
aVC:\u005cWindows\u005cFonts\u005cUbuntu-L.ttf
p1683
aVc:\u005cwindows\u005cfonts\u005cconsolab.ttf
p1684
aVC:\u005cWindows\u005cFonts\u005cUbuntu-M.ttf
p1685
aVc:\u005cwindows\u005cfonts\u005cubuntu-r.ttf
p1686
aVc:\u005cwindows\u005cfonts\u005ckalingab.ttf
p1687
aVc:\u005cwindows\u005cfonts\u005cdejavusans.ttf
p1688
aVc:\u005cwindows\u005cfonts\u005cvijayab.ttf
p1689
aVC:\u005cWindows\u005cFonts\u005cDejaVuSansCondensed-Oblique.ttf
p1690
aVc:\u005cwindows\u005cfonts\u005ccouri.ttf
p1691
aVC:\u005cWindows\u005cFonts\u005cshrutib.ttf
p1692
aVc:\u005cwindows\u005cfonts\u005ccordiauz.ttf
p1693
aVc:\u005cwindows\u005cfonts\u005cleelawad.ttf
p1694
aVc:\u005cwindows\u005cfonts\u005carial.ttf
p1695
aVc:\u005cwindows\u005cfonts\u005cshonarb.ttf
p1696
aVC:\u005cWindows\u005cFonts\u005cVani.ttf
p1697
aVc:\u005cwindows\u005cfonts\u005cl_10646.ttf
p1698
aVC:\u005cWindows\u005cFonts\u005cmriamc.ttf
p1699
aVC:\u005cWindows\u005cFonts\u005cUbuntu-BI.ttf
p1700
aVC:\u005cWindows\u005cFonts\u005cseguisb.ttf
p1701
aVc:\u005cwindows\u005cfonts\u005cdejavusansmono-bold.ttf
p1702
aVC:\u005cWindows\u005cFonts\u005ctradbdo.ttf
p1703
aVc:\u005cwindows\u005cfonts\u005cupcdbi.ttf
p1704
aVC:\u005cWindows\u005cFonts\u005ckokilai.ttf
p1705
aVC:\u005cWindows\u005cFonts\u005csegoesc.ttf
p1706
aVc:\u005cwindows\u005cfonts\u005cpalai.ttf
p1707
aVC:\u005cWindows\u005cFonts\u005cmalgun.ttf
p1708
aVc:\u005cwindows\u005cfonts\u005cubuntumono-bi.ttf
p1709
aVc:\u005cwindows\u005cfonts\u005ccalibrib.ttf
p1710
aVC:\u005cWindows\u005cFonts\u005cArimo-Italic.ttf
p1711
aVc:\u005cwindows\u005cfonts\u005cupcjb.ttf
p1712
aVC:\u005cWindows\u005cFonts\u005cDejaVuSerif-BoldItalic.ttf
p1713
aVc:\u005cwindows\u005cfonts\u005cdavidbd.ttf
p1714
aVC:\u005cWindows\u005cFonts\u005cconstani.ttf
p1715
aVc:\u005cwindows\u005cfonts\u005cdejavusanscondensed-boldoblique.ttf
p1716
aVc:\u005cwindows\u005cfonts\u005ckokilai.ttf
p1717
aVc:\u005cwindows\u005cfonts\u005cconstan.ttf
p1718
aVc:\u005cwindows\u005cfonts\u005csimpfxo.ttf
p1719
aVc:\u005cwindows\u005cfonts\u005cmangal.ttf
p1720
aVc:\u005cwindows\u005cfonts\u005ctrebuc.ttf
p1721
aVc:\u005cwindows\u005cfonts\u005csimhei.ttf
p1722
aVc:\u005cwindows\u005cfonts\u005claoui.ttf
p1723
aVc:\u005cwindows\u005cfonts\u005ccambriai.ttf
p1724
aVc:\u005cwindows\u005cfonts\u005ccour.ttf
p1725
aVC:\u005cWindows\u005cFonts\u005clatha.ttf
p1726
aVC:\u005cWindows\u005cFonts\u005cbrowaui.ttf
p1727
aVc:\u005cwindows\u005cfonts\u005cdaunpenh.ttf
p1728
aVC:\u005cWindows\u005cFonts\u005cCandarab.ttf
p1729
aVc:\u005cwindows\u005cfonts\u005ctradbdo.ttf
p1730
aVC:\u005cWindows\u005cFonts\u005cariblk.ttf
p1731
aVC:\u005cWindows\u005cFonts\u005ccorbel.ttf
p1732
aVC:\u005cWindows\u005cFonts\u005cgautami.ttf
p1733
aVC:\u005cWindows\u005cFonts\u005cUbuntu-RI.ttf
p1734
aVC:\u005cWindows\u005cFonts\u005cmsyi.ttf
p1735
aVc:\u005cwindows\u005cfonts\u005cdejavuserifcondensed-italic.ttf
p1736
aVC:\u005cWindows\u005cFonts\u005ccalibrib.ttf
p1737
aVC:\u005cWindows\u005cFonts\u005clvnm.ttf
p1738
aVc:\u005cwindows\u005cfonts\u005cupcdb.ttf
p1739
aVC:\u005cWindows\u005cFonts\u005cDejaVuSerifCondensed-Bold.ttf
p1740
aVC:\u005cWindows\u005cFonts\u005cnrkis.ttf
p1741
aVc:\u005cwindows\u005cfonts\u005cverdanab.ttf
p1742
aVC:\u005cWindows\u005cFonts\u005cphagspab.ttf
p1743
aVc:\u005cwindows\u005cfonts\u005ccourbi.ttf
p1744
aVC:\u005cWindows\u005cFonts\u005cGenBkBasR.ttf
p1745
aVc:\u005cwindows\u005cfonts\u005cphagspa.ttf
p1746
aVC:\u005cWindows\u005cFonts\u005cDejaVuSerifCondensed-BoldItalic.ttf
p1747
aVC:\u005cWindows\u005cFonts\u005cupcib.ttf
p1748
aVc:\u005cwindows\u005cfonts\u005cdejavuserif-italic.ttf
p1749
aVC:\u005cWindows\u005cFonts\u005cupcdb.ttf
p1750
aVC:\u005cWindows\u005cFonts\u005copens___.ttf
p1751
aVC:\u005cWindows\u005cFonts\u005cangsa.ttf
p1752
aVC:\u005cWindows\u005cFonts\u005cangsab.ttf
p1753
aVC:\u005cWindows\u005cFonts\u005csegoeuib.ttf
p1754
aVC:\u005cWindows\u005cFonts\u005cebrima.ttf
p1755
aVC:\u005cWindows\u005cFonts\u005cCandaraz.ttf
p1756
aVC:\u005cWindows\u005cFonts\u005cupckl.ttf
p1757
aVC:\u005cWindows\u005cFonts\u005cUbuntu-C.ttf
p1758
aVC:\u005cWindows\u005cFonts\u005cdaunpenh.ttf
p1759
aVC:\u005cWindows\u005cFonts\u005cconsolai.ttf
p1760
aVc:\u005cwindows\u005cfonts\u005ctrado.ttf
p1761
aVc:\u005cwindows\u005cfonts\u005cbrowaub.ttf
p1762
aVC:\u005cWindows\u005cFonts\u005cmsuighur.ttf
p1763
aVc:\u005cwindows\u005cfonts\u005ckokilabi.ttf
p1764
aVC:\u005cWindows\u005cFonts\u005ccourbd.ttf
p1765
aVC:\u005cWindows\u005cFonts\u005ctimesbi.ttf
p1766
aVc:\u005cwindows\u005cfonts\u005cgisha.ttf
p1767
aVC:\u005cWindows\u005cFonts\u005cbrowauz.ttf
p1768
aVc:\u005cwindows\u005cfonts\u005cdejavusansmono-boldoblique.ttf
p1769
aVC:\u005cWindows\u005cFonts\u005caparajb.ttf
p1770
aVC:\u005cWindows\u005cFonts\u005cArimo-Bold.ttf
p1771
aVc:\u005cwindows\u005cfonts\u005carialbi.ttf
p1772
aVc:\u005cwindows\u005cfonts\u005ctrebucit.ttf
p1773
aVc:\u005cwindows\u005cfonts\u005carimo-bolditalic.ttf
p1774
aVc:\u005cwindows\u005cfonts\u005ccourbd.ttf
p1775
aVc:\u005cwindows\u005cfonts\u005cubuntu-ri.ttf
p1776
aVc:\u005cwindows\u005cfonts\u005csimsunb.ttf
p1777
aVc:\u005cwindows\u005cfonts\u005cshrutib.ttf
p1778
aVc:\u005cwindows\u005cfonts\u005copens___.ttf
p1779
aVc:\u005cwindows\u005cfonts\u005cbrowaui.ttf
p1780
aVc:\u005cwindows\u005cfonts\u005cframdit.ttf
p1781
aVc:\u005cwindows\u005cfonts\u005cmriam.ttf
p1782
aVC:\u005cWindows\u005cFonts\u005cupcii.ttf
p1783
aVc:\u005cwindows\u005cfonts\u005ctimesbi.ttf
p1784
aVc:\u005cwindows\u005cfonts\u005cmangalb.ttf
p1785
aVc:\u005cwindows\u005cfonts\u005ccomicbd.ttf
p1786
aVc:\u005cwindows\u005cfonts\u005ccandarab.ttf
p1787
aVc:\u005cwindows\u005cfonts\u005cupcjbi.ttf
p1788
aVC:\u005cWindows\u005cFonts\u005cgeorgiaz.ttf
p1789
aVc:\u005cwindows\u005cfonts\u005cupclb.ttf
p1790
aVC:\u005cWindows\u005cFonts\u005cmsjh.ttf
p1791
aVc:\u005cwindows\u005cfonts\u005cubuntu-bi.ttf
p1792
aVC:\u005cWindows\u005cFonts\u005carialbi.ttf
p1793
aVc:\u005cwindows\u005cfonts\u005cupcebi.ttf
p1794
aVC:\u005cWindows\u005cFonts\u005cbrowa.ttf
p1795
aVC:\u005cWindows\u005cFonts\u005cDejaVuSans.ttf
p1796
aVC:\u005cWindows\u005cFonts\u005ccambriai.ttf
p1797
aVC:\u005cWindows\u005cFonts\u005cupcdbi.ttf
p1798
aVc:\u005cwindows\u005cfonts\u005ccandarai.ttf
p1799
aVc:\u005cwindows\u005cfonts\u005cupceb.ttf
p1800
aVC:\u005cWindows\u005cFonts\u005cDejaVuSansMono-Bold.ttf
p1801
aVc:\u005cwindows\u005cfonts\u005caparaj.ttf
p1802
aVc:\u005cwindows\u005cfonts\u005cconstanb.ttf
p1803
aVc:\u005cwindows\u005cfonts\u005ctungab.ttf
p1804
aVc:\u005cwindows\u005cfonts\u005cdejavusanscondensed-oblique.ttf
p1805
aVC:\u005cWindows\u005cFonts\u005ctimesi.ttf
p1806
aVC:\u005cWindows\u005cFonts\u005cvijayab.ttf
p1807
aVC:\u005cWindows\u005cFonts\u005cGabriola.ttf
p1808
aVc:\u005cwindows\u005cfonts\u005ccalibriz.ttf
p1809
aVc:\u005cwindows\u005cfonts\u005ciskpota.ttf
p1810
aVC:\u005cWindows\u005cFonts\u005cCandarai.ttf
p1811
aVC:\u005cWindows\u005cFonts\u005cangsauz.ttf
p1812
aVC:\u005cWindows\u005cFonts\u005ctrebucbd.ttf
p1813
aVc:\u005cwindows\u005cfonts\u005cupcib.ttf
p1814
aVC:\u005cWindows\u005cFonts\u005ccouri.ttf
p1815
aVC:\u005cWindows\u005cFonts\u005ccordiauz.ttf
p1816
aVc:\u005cwindows\u005cfonts\u005ccordiab.ttf
p1817
aVc:\u005cwindows\u005cfonts\u005ceuphemia.ttf
p1818
aVc:\u005cwindows\u005cfonts\u005cangsab.ttf
p1819
aVc:\u005cwindows\u005cfonts\u005caparaji.ttf
p1820
aVC:\u005cWindows\u005cFonts\u005ckalinga.ttf
p1821
aVc:\u005cwindows\u005cfonts\u005cconstanz.ttf
p1822
aVC:\u005cWindows\u005cFonts\u005caparaj.ttf
p1823
aVC:\u005cWindows\u005cFonts\u005cGenBasR.ttf
p1824
aVC:\u005cWindows\u005cFonts\u005csylfaen.ttf
p1825
aVC:\u005cWindows\u005cFonts\u005csegoeuii.ttf
p1826
aVc:\u005cwindows\u005cfonts\u005ccandara.ttf
p1827
aVC:\u005cWindows\u005cFonts\u005cmvboli.ttf
p1828
aVc:\u005cwindows\u005cfonts\u005cvijaya.ttf
p1829
aVC:\u005cWindows\u005cFonts\u005ccordiai.ttf
p1830
aVC:\u005cWindows\u005cFonts\u005cutsaahb.ttf
p1831
aVC:\u005cWindows\u005cFonts\u005csimpbdo.ttf
p1832
aVC:\u005cWindows\u005cFonts\u005ctungab.ttf
p1833
aVC:\u005cWindows\u005cFonts\u005cmriam.ttf
p1834
aVC:\u005cWindows\u005cFonts\u005cmajallab.ttf
p1835
aVC:\u005cWindows\u005cFonts\u005ccomicbd.ttf
p1836
aVC:\u005cWindows\u005cFonts\u005ciskpota.ttf
p1837
aVc:\u005cwindows\u005cfonts\u005cupcjl.ttf
p1838
aVC:\u005cWindows\u005cFonts\u005cShonar.ttf
p1839
aVc:\u005cwindows\u005cfonts\u005cgenbasr.ttf
p1840
aVC:\u005cWindows\u005cFonts\u005csegoeuil.ttf
p1841
aVc:\u005cwindows\u005cfonts\u005cmsyi.ttf
p1842
aVc:\u005cwindows\u005cfonts\u005cwingding.ttf
p1843
aVC:\u005cWindows\u005cFonts\u005csimkai.ttf
p1844
aVC:\u005cWindows\u005cFonts\u005cutsaah.ttf
p1845
aVC:\u005cWindows\u005cFonts\u005csimhei.ttf
p1846
aVC:\u005cWindows\u005cFonts\u005cbrowai.ttf
p1847
aVC:\u005cWindows\u005cFonts\u005ccorbelz.ttf
p1848
aVC:\u005cWindows\u005cFonts\u005cupcji.ttf
p1849
aVc:\u005cwindows\u005cfonts\u005csegoescb.ttf
p1850
aVc:\u005cwindows\u005cfonts\u005cdejavuserifcondensed-bolditalic.ttf
p1851
aVC:\u005cWindows\u005cFonts\u005carialbd.ttf
p1852
aVC:\u005cWindows\u005cFonts\u005ccomic.ttf
p1853
aVC:\u005cWindows\u005cFonts\u005cshruti.ttf
p1854
aVc:\u005cwindows\u005cfonts\u005cangsa.ttf
p1855
aVc:\u005cwindows\u005cfonts\u005ccalibril.ttf
p1856
aVc:\u005cprogram files (x86)\u005csr research\u005cdataviewer\u005cubuntumono-r.ttf
p1857
aVC:\u005cWindows\u005cFonts\u005ctrado.ttf
p1858
aVc:\u005cwindows\u005cfonts\u005cdejavusansmono.ttf
p1859
aVC:\u005cWindows\u005cFonts\u005cupcjl.ttf
p1860
aVC:\u005cWindows\u005cFonts\u005cupcil.ttf
p1861
aVc:\u005cwindows\u005cfonts\u005cpalab.ttf
p1862
aVC:\u005cWindows\u005cFonts\u005cutsaahbi.ttf
p1863
aVc:\u005cwindows\u005cfonts\u005cupclbi.ttf
p1864
aVc:\u005cwindows\u005cfonts\u005cfrank.ttf
p1865
aVC:\u005cWindows\u005cFonts\u005craavib.ttf
p1866
aVc:\u005cwindows\u005cfonts\u005caparajb.ttf
p1867
aVC:\u005cWindows\u005cFonts\u005cdavidbd.ttf
p1868
aVc:\u005cwindows\u005cfonts\u005cariblk.ttf
p1869
aVC:\u005cWindows\u005cFonts\u005cntailu.ttf
p1870
aVC:\u005cWindows\u005cFonts\u005cDejaVuSans-Bold.ttf
p1871
aVc:\u005cwindows\u005cfonts\u005cconsolaz.ttf
p1872
aVc:\u005cwindows\u005cfonts\u005craavib.ttf
p1873
aVc:\u005cwindows\u005cfonts\u005cupcei.ttf
p1874
aVc:\u005cwindows\u005cfonts\u005cupckb.ttf
p1875
aVC:\u005cWindows\u005cFonts\u005cVanib.ttf
p1876
aVC:\u005cWindows\u005cFonts\u005ctrebuc.ttf
p1877
aVC:\u005cWindows\u005cFonts\u005ccorbeli.ttf
p1878
aVc:\u005cwindows\u005cfonts\u005cdejavuserif-bolditalic.ttf
p1879
aVC:\u005cWindows\u005cFonts\u005cgishabd.ttf
p1880
aVC:\u005cWindows\u005cFonts\u005cconsolab.ttf
p1881
aVC:\u005cWindows\u005cFonts\u005cArimo-BoldItalic.ttf
p1882
aVC:\u005cWindows\u005cFonts\u005cestre.ttf
p1883
aVc:\u005cwindows\u005cfonts\u005cnyala.ttf
p1884
aVc:\u005cwindows\u005cfonts\u005cupcll.ttf
p1885
aVc:\u005cwindows\u005cfonts\u005cubuntu-b.ttf
p1886
aVc:\u005cwindows\u005cfonts\u005ccordiaub.ttf
p1887
aVC:\u005cWindows\u005cFonts\u005cDejaVuSansCondensed.ttf
p1888
aVc:\u005cwindows\u005cfonts\u005cgenbasi.ttf
p1889
aVC:\u005cWindows\u005cFonts\u005cgeorgia.ttf
p1890
aVc:\u005cwindows\u005cfonts\u005chimalaya.ttf
p1891
aVc:\u005cwindows\u005cfonts\u005ccalibrii.ttf
p1892
aVc:\u005cwindows\u005cfonts\u005ctimesi.ttf
p1893
aVc:\u005cwindows\u005cfonts\u005cupcfl.ttf
p1894
aVC:\u005cWindows\u005cFonts\u005cUbuntu-B.ttf
p1895
aVC:\u005cWindows\u005cFonts\u005ccourbi.ttf
p1896
aVC:\u005cWindows\u005cFonts\u005ccorbelb.ttf
p1897
aVc:\u005cwindows\u005cfonts\u005cmsuighur.ttf
p1898
aVc:\u005cwindows\u005cfonts\u005cupcfb.ttf
p1899
aVC:\u005cWindows\u005cFonts\u005cpalai.ttf
p1900
aVC:\u005cWindows\u005cFonts\u005cangsaub.ttf
p1901
aVC:\u005cWindows\u005cFonts\u005cupckb.ttf
p1902
aVC:\u005cWindows\u005cFonts\u005cLaoUIb.ttf
p1903
aVC:\u005cWindows\u005cFonts\u005caparajbi.ttf
p1904
aVc:\u005cwindows\u005cfonts\u005ccordiaui.ttf
p1905
aVC:\u005cWindows\u005cFonts\u005cnyala.ttf
p1906
aVC:\u005cWindows\u005cFonts\u005cUbuntu-LI.ttf
p1907
aVc:\u005cwindows\u005cfonts\u005cmalgunbd.ttf
p1908
aVc:\u005cwindows\u005cfonts\u005cnrkis.ttf
p1909
aVC:\u005cWindows\u005cFonts\u005cShonarb.ttf
p1910
aVc:\u005cwindows\u005cfonts\u005cubuntumono-ri.ttf
p1911
aVC:\u005cWindows\u005cFonts\u005cwebdings.ttf
p1912
aVc:\u005cwindows\u005cfonts\u005cntailu.ttf
p1913
aVc:\u005cwindows\u005cfonts\u005ckartikab.ttf
p1914
aVc:\u005cwindows\u005cfonts\u005cdavid.ttf
p1915
aVC:\u005cWindows\u005cFonts\u005ccalibrili.ttf
p1916
aVC:\u005cWindows\u005cFonts\u005cbrowau.ttf
p1917
aVc:\u005cwindows\u005cfonts\u005cdejavuserif.ttf
p1918
aVc:\u005cwindows\u005cfonts\u005cupcfbi.ttf
p1919
aVc:\u005cwindows\u005cfonts\u005cleelawdb.ttf
p1920
aVc:\u005cwindows\u005cfonts\u005cgeorgiaz.ttf
p1921
aVc:\u005cwindows\u005cfonts\u005ccalibrili.ttf
p1922
aVC:\u005cWindows\u005cFonts\u005cmsjhbd.ttf
p1923
aVc:\u005cwindows\u005cfonts\u005cwebdings.ttf
p1924
aVC:\u005cWindows\u005cFonts\u005cGenBkBasI.ttf
p1925
aVC:\u005cWindows\u005cFonts\u005cupclbi.ttf
p1926
aVC:\u005cWindows\u005cFonts\u005candlso.ttf
p1927
aVC:\u005cWindows\u005cFonts\u005csegoeuiz.ttf
p1928
aVc:\u005cwindows\u005cfonts\u005cvanib.ttf
p1929
aVc:\u005cwindows\u005cfonts\u005cubuntumono-b.ttf
p1930
aVc:\u005cwindows\u005cfonts\u005cconsolai.ttf
p1931
aVc:\u005cwindows\u005cfonts\u005cmsjh.ttf
p1932
aVc:\u005cwindows\u005cfonts\u005cgeorgia.ttf
p1933
aVC:\u005cWindows\u005cFonts\u005ckokila.ttf
p1934
aVC:\u005cWindows\u005cFonts\u005cverdana.ttf
p1935
aVc:\u005cwindows\u005cfonts\u005csegoeuii.ttf
p1936
aVc:\u005cwindows\u005cfonts\u005cupcli.ttf
p1937
aVc:\u005cwindows\u005cfonts\u005cmonbaiti.ttf
p1938
aVc:\u005cwindows\u005cfonts\u005ckaiu.ttf
p1939
aVC:\u005cWindows\u005cFonts\u005cntailub.ttf
p1940
aVc:\u005cwindows\u005cfonts\u005ccorbel.ttf
p1941
aVC:\u005cWindows\u005cFonts\u005csegoeui.ttf
p1942
aVc:\u005cwindows\u005cfonts\u005ckokila.ttf
p1943
aVc:\u005cwindows\u005cfonts\u005ctimesbd.ttf
p1944
aVc:\u005cwindows\u005cfonts\u005cmajallab.ttf
p1945
aVc:\u005cwindows\u005cfonts\u005cbrowaz.ttf
p1946
aVC:\u005cWindows\u005cFonts\u005csymbol.ttf
p1947
aVC:\u005cWindows\u005cFonts\u005cupcdi.ttf
p1948
aVC:\u005cWindows\u005cFonts\u005cbrowaub.ttf
p1949
aVC:\u005cWindows\u005cFonts\u005caparaji.ttf
p1950
aVc:\u005cwindows\u005cfonts\u005ccordiau.ttf
p1951
aVc:\u005cwindows\u005cfonts\u005csegoesc.ttf
p1952
aVC:\u005cWindows\u005cFonts\u005cpalab.ttf
p1953
aVC:\u005cWindows\u005cFonts\u005cgisha.ttf
p1954
aVC:\u005cWindows\u005cFonts\u005cmsyh.ttf
p1955
aVC:\u005cWindows\u005cFonts\u005carial.ttf
p1956
aVc:\u005cwindows\u005cfonts\u005ccorbelz.ttf
p1957
aVC:\u005cWindows\u005cFonts\u005cGenBasB.ttf
p1958
aVC:\u005cWindows\u005cFonts\u005ctahoma.ttf
p1959
aVC:\u005cWindows\u005cFonts\u005cDejaVuSerif-Bold.ttf
p1960
aVc:\u005cwindows\u005cfonts\u005ccomic.ttf
p1961
aVC:\u005cWindows\u005cFonts\u005cfrank.ttf
p1962
aVc:\u005cwindows\u005cfonts\u005csegoeprb.ttf
p1963
aVC:\u005cWindows\u005cFonts\u005csimsunb.ttf
p1964
aVc:\u005cwindows\u005cfonts\u005cangsaz.ttf
p1965
aVC:\u005cWindows\u005cFonts\u005cupcli.ttf
p1966
aVC:\u005cWindows\u005cFonts\u005cahronbd.ttf
p1967
aVC:\u005cWindows\u005cFonts\u005cverdanab.ttf
p1968
aVc:\u005cwindows\u005cfonts\u005ctahoma.ttf
p1969
aVc:\u005cwindows\u005cfonts\u005ckalinga.ttf
p1970
aVc:\u005cwindows\u005cfonts\u005ccorbeli.ttf
p1971
aVC:\u005cWindows\u005cFonts\u005csimpo.ttf
p1972
aVc:\u005cwindows\u005cfonts\u005candlso.ttf
p1973
aVc:\u005cwindows\u005cfonts\u005ccordia.ttf
p1974
aVc:\u005cwindows\u005cfonts\u005cframd.ttf
p1975
aVC:\u005cWindows\u005cFonts\u005cLaoUI.ttf
p1976
aVC:\u005cWindows\u005cFonts\u005cupcjb.ttf
p1977
aVc:\u005cwindows\u005cfonts\u005ccordiai.ttf
p1978
aVC:\u005cWindows\u005cFonts\u005cupceb.ttf
p1979
aVc:\u005cwindows\u005cfonts\u005cimpact.ttf
p1980
aVc:\u005cwindows\u005cfonts\u005cmalgun.ttf
p1981
aVC:\u005cWindows\u005cFonts\u005cDejaVuSans-Oblique.ttf
p1982
aVC:\u005cWindows\u005cFonts\u005ccambriab.ttf
p1983
aVc:\u005cwindows\u005cfonts\u005cdejavusans-bold.ttf
p1984
aVC:\u005cWindows\u005cFonts\u005cmsyhbd.ttf
p1985
aVC:\u005cWindows\u005cFonts\u005cDejaVuSerifCondensed-Italic.ttf
p1986
aVc:\u005cwindows\u005cfonts\u005cdejavusans-boldoblique.ttf
p1987
aVc:\u005cwindows\u005cfonts\u005cgeorgiai.ttf
p1988
aVc:\u005cwindows\u005cfonts\u005claouib.ttf
p1989
aVc:\u005cwindows\u005cfonts\u005cpala.ttf
p1990
aVc:\u005cwindows\u005cfonts\u005cdejavuserifcondensed-bold.ttf
p1991
aVc:\u005cwindows\u005cfonts\u005cestre.ttf
p1992
aVc:\u005cwindows\u005cfonts\u005crod.ttf
p1993
aVc:\u005cwindows\u005cfonts\u005ccordiaz.ttf
p1994
aVC:\u005cWindows\u005cFonts\u005cariali.ttf
p1995
aVc:\u005cwindows\u005cfonts\u005cseguisym.ttf
p1996
aVc:\u005cwindows\u005cfonts\u005ccandaraz.ttf
p1997
aVC:\u005cWindows\u005cFonts\u005cebrimabd.ttf
p1998
aVc:\u005cwindows\u005cfonts\u005ccambriaz.ttf
p1999
aVC:\u005cWindows\u005cFonts\u005cbrowaz.ttf
p2000
aVc:\u005cwindows\u005cfonts\u005cangsau.ttf
p2001
aVC:\u005cWindows\u005cFonts\u005cKhmerUIb.ttf
p2002
aVc:\u005cwindows\u005cfonts\u005cgeorgiab.ttf
p2003
aVc:\u005cwindows\u005cfonts\u005cangsaub.ttf
p2004
aVC:\u005cWindows\u005cFonts\u005cconstan.ttf
p2005
aVC:\u005cWindows\u005cFonts\u005cmangal.ttf
p2006
aVC:\u005cWindows\u005cFonts\u005csimpfxo.ttf
p2007
aVC:\u005cWindows\u005cFonts\u005cDejaVuSerifCondensed.ttf
p2008
aVC:\u005cWindows\u005cFonts\u005cupcebi.ttf
p2009
aVC:\u005cWindows\u005cFonts\u005cpala.ttf
p2010
aVc:\u005cwindows\u005cfonts\u005csegoeuib.ttf
p2011
aVC:\u005cWindows\u005cFonts\u005cDejaVuSerif-Italic.ttf
p2012
aVc:\u005cwindows\u005cfonts\u005csegoeuil.ttf
p2013
aVC:\u005cWindows\u005cFonts\u005cupcfi.ttf
p2014
aVc:\u005cwindows\u005cfonts\u005carimo-italic.ttf
p2015
aVC:\u005cWindows\u005cFonts\u005cdavid.ttf
p2016
aVC:\u005cWindows\u005cFonts\u005crod.ttf
p2017
aVc:\u005cwindows\u005cfonts\u005carimo-bold.ttf
p2018
aVC:\u005cWindows\u005cFonts\u005ccalibri.ttf
p2019
aVc:\u005cwindows\u005cfonts\u005cubuntu-l.ttf
p2020
aVC:\u005cWindows\u005cFonts\u005ctrebucit.ttf
p2021
aVc:\u005cwindows\u005cfonts\u005cgautami.ttf
p2022
aVc:\u005cwindows\u005cfonts\u005cdejavusans-extralight.ttf
p2023
aVc:\u005cwindows\u005cfonts\u005cebrima.ttf
p2024
aVC:\u005cWindows\u005cFonts\u005cArimo-Regular.ttf
p2025
aVC:\u005cWindows\u005cFonts\u005clucon.ttf
p2026
aVC:\u005cWindows\u005cFonts\u005cgeorgiab.ttf
p2027
aVC:\u005cWindows\u005cFonts\u005cvijaya.ttf
p2028
aVC:\u005cWindows\u005cFonts\u005cangsau.ttf
p2029
aVc:\u005cwindows\u005cfonts\u005cangsai.ttf
p2030
aVC:\u005cWindows\u005cFonts\u005carabtype.ttf
p2031
aVC:\u005cWindows\u005cFonts\u005cvrinda.ttf
p2032
aVc:\u005cwindows\u005cfonts\u005cmajalla.ttf
p2033
aVc:\u005cwindows\u005cfonts\u005craavi.ttf
p2034
aVc:\u005cwindows\u005cfonts\u005ctunga.ttf
p2035
aVc:\u005cwindows\u005cfonts\u005cupcibi.ttf
p2036
aVC:\u005cWindows\u005cFonts\u005csegoescb.ttf
p2037
aVc:\u005cwindows\u005cfonts\u005cvrinda.ttf
p2038
aVC:\u005cWindows\u005cFonts\u005ciskpotab.ttf
p2039
aVc:\u005cwindows\u005cfonts\u005cverdana.ttf
p2040
aVC:\u005cWindows\u005cFonts\u005cCandara.ttf
p2041
aVc:\u005cwindows\u005cfonts\u005clvnm.ttf
p2042
aVC:\u005cWindows\u005cFonts\u005cutsaahi.ttf
p2043
aVc:\u005cwindows\u005cfonts\u005cdejavusanscondensed.ttf
p2044
aVC:\u005cWindows\u005cFonts\u005ccordiaub.ttf
p2045
aVc:\u005cwindows\u005cfonts\u005cupcki.ttf
p2046
aVc:\u005cwindows\u005cfonts\u005cubuntu-mi.ttf
p2047
aVC:\u005cWindows\u005cFonts\u005cGenBasBI.ttf
p2048
aVC:\u005cWindows\u005cFonts\u005cangsaz.ttf
p2049
aVC:\u005cWindows\u005cFonts\u005cleelawad.ttf
p2050
aVc:\u005cwindows\u005cfonts\u005cplantc.ttf
p2051
aVC:\u005cWindows\u005cFonts\u005ctaile.ttf
p2052
aVC:\u005cWindows\u005cFonts\u005cseguisym.ttf
p2053
aVc:\u005cwindows\u005cfonts\u005cconstani.ttf
p2054
aVC:\u005cWindows\u005cFonts\u005ctimes.ttf
p2055
aVC:\u005cWindows\u005cFonts\u005cUbuntuMono-R.ttf
p2056
aVc:\u005cwindows\u005cfonts\u005cshruti.ttf
p2057
aVC:\u005cWindows\u005cFonts\u005clathab.ttf
p2058
aVc:\u005cwindows\u005cfonts\u005cgabriola.ttf
p2059
aVC:\u005cWindows\u005cFonts\u005cupcdl.ttf
p2060
aVc:\u005cwindows\u005cfonts\u005cpalabi.ttf
p2061
aVC:\u005cWindows\u005cFonts\u005ccordiaui.ttf
p2062
aVC:\u005cWindows\u005cFonts\u005cphagspa.ttf
p2063
aVc:\u005cwindows\u005cfonts\u005cgenbasb.ttf
p2064
aVC:\u005cWindows\u005cFonts\u005cUbuntu-MI.ttf
p2065
aVc:\u005cwindows\u005cfonts\u005cbrowa.ttf
p2066
aVC:\u005cWindows\u005cFonts\u005cconsolaz.ttf
p2067
aVC:\u005cWindows\u005cFonts\u005cupcei.ttf
p2068
aVc:\u005cwindows\u005cfonts\u005cgenbkbasb.ttf
p2069
aVc:\u005cwindows\u005cfonts\u005clathab.ttf
p2070
aVc:\u005cwindows\u005cfonts\u005cutsaahbi.ttf
p2071
aVC:\u005cWindows\u005cFonts\u005cDejaVuSansMono-BoldOblique.ttf
p2072
aVC:\u005cWindows\u005cFonts\u005cDejaVuSansCondensed-Bold.ttf
p2073
aVC:\u005cWindows\u005cFonts\u005cUbuntuMono-RI.ttf
p2074
aVc:\u005cwindows\u005cfonts\u005csimfang.ttf
p2075
aVc:\u005cwindows\u005cfonts\u005cmvboli.ttf
p2076
aVC:\u005cWindows\u005cFonts\u005ccordiau.ttf
p2077
aVC:\u005cWindows\u005cFonts\u005cupcki.ttf
p2078
aVC:\u005cWindows\u005cFonts\u005cangsaui.ttf
p2079
aVc:\u005cwindows\u005cfonts\u005clvnmbd.ttf
p2080
aVC:\u005cWindows\u005cFonts\u005cKhmerUI.ttf
p2081
aVC:\u005cWindows\u005cFonts\u005cmonbaiti.ttf
p2082
aVc:\u005cwindows\u005cfonts\u005cdejavusansmono-oblique.ttf
p2083
aVC:\u005cWindows\u005cFonts\u005cplantc.ttf
p2084
aVc:\u005cwindows\u005cfonts\u005ckartika.ttf
p2085
aVc:\u005cwindows\u005cfonts\u005cdokchamp.ttf
p2086
aVc:\u005cwindows\u005cfonts\u005cphagspab.ttf
p2087
aVc:\u005cwindows\u005cfonts\u005cntailub.ttf
p2088
aVc:\u005cwindows\u005cfonts\u005cgishabd.ttf
p2089
aVc:\u005cwindows\u005cfonts\u005ciskpotab.ttf
p2090
asS'_FontManager__default_weight'
p2091
g13
sS'_version'
p2092
I101
sS'ttf_lookup_cache'
p2093
(dp2094
sS'default_size'
p2095
NsS'defaultFont'
p2096
(dp2097
g1500
S'E:\\Programmatuur\\WinPython_versions\\WinPython-PyGaze-0.5.1\\python-2.7.3\\lib\\site-packages\\matplotlib\\mpl-data\\fonts\\afm\\phvr8a.afm'
p2098
sg1502
g1530
ssS'afmfiles'
p2099
(lp2100
g2098
aS'E:\\Programmatuur\\WinPython_versions\\WinPython-PyGaze-0.5.1\\python-2.7.3\\lib\\site-packages\\matplotlib\\mpl-data\\fonts\\afm\\pplr8a.afm'
p2101
aS'E:\\Programmatuur\\WinPython_versions\\WinPython-PyGaze-0.5.1\\python-2.7.3\\lib\\site-packages\\matplotlib\\mpl-data\\fonts\\pdfcorefonts\\Times-Italic.afm'
p2102
aS'E:\\Programmatuur\\WinPython_versions\\WinPython-PyGaze-0.5.1\\python-2.7.3\\lib\\site-packages\\matplotlib\\mpl-data\\fonts\\afm\\ptmr8a.afm'
p2103
aS'E:\\Programmatuur\\WinPython_versions\\WinPython-PyGaze-0.5.1\\python-2.7.3\\lib\\site-packages\\matplotlib\\mpl-data\\fonts\\pdfcorefonts\\Helvetica-BoldOblique.afm'
p2104
aS'E:\\Programmatuur\\WinPython_versions\\WinPython-PyGaze-0.5.1\\python-2.7.3\\lib\\site-packages\\matplotlib\\mpl-data\\fonts\\afm\\pbkl8a.afm'
p2105
aS'E:\\Programmatuur\\WinPython_versions\\WinPython-PyGaze-0.5.1\\python-2.7.3\\lib\\site-packages\\matplotlib\\mpl-data\\fonts\\afm\\pbkd8a.afm'
p2106
aS'E:\\Programmatuur\\WinPython_versions\\WinPython-PyGaze-0.5.1\\python-2.7.3\\lib\\site-packages\\matplotlib\\mpl-data\\fonts\\afm\\pbkli8a.afm'
p2107
aS'E:\\Programmatuur\\WinPython_versions\\WinPython-PyGaze-0.5.1\\python-2.7.3\\lib\\site-packages\\matplotlib\\mpl-data\\fonts\\afm\\pcrbo8a.afm'
p2108
aS'E:\\Programmatuur\\WinPython_versions\\WinPython-PyGaze-0.5.1\\python-2.7.3\\lib\\site-packages\\matplotlib\\mpl-data\\fonts\\afm\\cmtt10.afm'
p2109
aS'E:\\Programmatuur\\WinPython_versions\\WinPython-PyGaze-0.5.1\\python-2.7.3\\lib\\site-packages\\matplotlib\\mpl-data\\fonts\\pdfcorefonts\\Helvetica.afm'
p2110
aS'E:\\Programmatuur\\WinPython_versions\\WinPython-PyGaze-0.5.1\\python-2.7.3\\lib\\site-packages\\matplotlib\\mpl-data\\fonts\\afm\\pncbi8a.afm'
p2111
aS'E:\\Programmatuur\\WinPython_versions\\WinPython-PyGaze-0.5.1\\python-2.7.3\\lib\\site-packages\\matplotlib\\mpl-data\\fonts\\afm\\pbkdi8a.afm'
p2112
aS'E:\\Programmatuur\\WinPython_versions\\WinPython-PyGaze-0.5.1\\python-2.7.3\\lib\\site-packages\\matplotlib\\mpl-data\\fonts\\afm\\phvbo8a.afm'
p2113
aS'E:\\Programmatuur\\WinPython_versions\\WinPython-PyGaze-0.5.1\\python-2.7.3\\lib\\site-packages\\matplotlib\\mpl-data\\fonts\\afm\\pagko8a.afm'
p2114
aS'E:\\Programmatuur\\WinPython_versions\\WinPython-PyGaze-0.5.1\\python-2.7.3\\lib\\site-packages\\matplotlib\\mpl-data\\fonts\\afm\\pplri8a.afm'
p2115
aS'E:\\Programmatuur\\WinPython_versions\\WinPython-PyGaze-0.5.1\\python-2.7.3\\lib\\site-packages\\matplotlib\\mpl-data\\fonts\\afm\\cmex10.afm'
p2116
aS'E:\\Programmatuur\\WinPython_versions\\WinPython-PyGaze-0.5.1\\python-2.7.3\\lib\\site-packages\\matplotlib\\mpl-data\\fonts\\afm\\pagk8a.afm'
p2117
aS'E:\\Programmatuur\\WinPython_versions\\WinPython-PyGaze-0.5.1\\python-2.7.3\\lib\\site-packages\\matplotlib\\mpl-data\\fonts\\afm\\phvro8an.afm'
p2118
aS'E:\\Programmatuur\\WinPython_versions\\WinPython-PyGaze-0.5.1\\python-2.7.3\\lib\\site-packages\\matplotlib\\mpl-data\\fonts\\pdfcorefonts\\Courier-BoldOblique.afm'
p2119
aS'E:\\Programmatuur\\WinPython_versions\\WinPython-PyGaze-0.5.1\\python-2.7.3\\lib\\site-packages\\matplotlib\\mpl-data\\fonts\\afm\\cmr10.afm'
p2120
aS'E:\\Programmatuur\\WinPython_versions\\WinPython-PyGaze-0.5.1\\python-2.7.3\\lib\\site-packages\\matplotlib\\mpl-data\\fonts\\afm\\pplbi8a.afm'
p2121
aS'E:\\Programmatuur\\WinPython_versions\\WinPython-PyGaze-0.5.1\\python-2.7.3\\lib\\site-packages\\matplotlib\\mpl-data\\fonts\\afm\\pagd8a.afm'
p2122
aS'E:\\Programmatuur\\WinPython_versions\\WinPython-PyGaze-0.5.1\\python-2.7.3\\lib\\site-packages\\matplotlib\\mpl-data\\fonts\\afm\\pcrr8a.afm'
p2123
aS'E:\\Programmatuur\\WinPython_versions\\WinPython-PyGaze-0.5.1\\python-2.7.3\\lib\\site-packages\\matplotlib\\mpl-data\\fonts\\afm\\putbi8a.afm'
p2124
aS'E:\\Programmatuur\\WinPython_versions\\WinPython-PyGaze-0.5.1\\python-2.7.3\\lib\\site-packages\\matplotlib\\mpl-data\\fonts\\pdfcorefonts\\Times-Roman.afm'
p2125
aS'E:\\Programmatuur\\WinPython_versions\\WinPython-PyGaze-0.5.1\\python-2.7.3\\lib\\site-packages\\matplotlib\\mpl-data\\fonts\\afm\\cmsy10.afm'
p2126
aS'E:\\Programmatuur\\WinPython_versions\\WinPython-PyGaze-0.5.1\\python-2.7.3\\lib\\site-packages\\matplotlib\\mpl-data\\fonts\\afm\\pagdo8a.afm'
p2127
aS'E:\\Programmatuur\\WinPython_versions\\WinPython-PyGaze-0.5.1\\python-2.7.3\\lib\\site-packages\\matplotlib\\mpl-data\\fonts\\afm\\ptmbi8a.afm'
p2128
aS'E:\\Programmatuur\\WinPython_versions\\WinPython-PyGaze-0.5.1\\python-2.7.3\\lib\\site-packages\\matplotlib\\mpl-data\\fonts\\afm\\pcrro8a.afm'
p2129
aS'E:\\Programmatuur\\WinPython_versions\\WinPython-PyGaze-0.5.1\\python-2.7.3\\lib\\site-packages\\matplotlib\\mpl-data\\fonts\\afm\\phvl8a.afm'
p2130
aS'E:\\Programmatuur\\WinPython_versions\\WinPython-PyGaze-0.5.1\\python-2.7.3\\lib\\site-packages\\matplotlib\\mpl-data\\fonts\\afm\\pncri8a.afm'
p2131
aS'E:\\Programmatuur\\WinPython_versions\\WinPython-PyGaze-0.5.1\\python-2.7.3\\lib\\site-packages\\matplotlib\\mpl-data\\fonts\\afm\\putri8a.afm'
p2132
aS'E:\\Programmatuur\\WinPython_versions\\WinPython-PyGaze-0.5.1\\python-2.7.3\\lib\\site-packages\\matplotlib\\mpl-data\\fonts\\pdfcorefonts\\Helvetica-Bold.afm'
p2133
aS'E:\\Programmatuur\\WinPython_versions\\WinPython-PyGaze-0.5.1\\python-2.7.3\\lib\\site-packages\\matplotlib\\mpl-data\\fonts\\pdfcorefonts\\Times-Bold.afm'
p2134
aS'E:\\Programmatuur\\WinPython_versions\\WinPython-PyGaze-0.5.1\\python-2.7.3\\lib\\site-packages\\matplotlib\\mpl-data\\fonts\\pdfcorefonts\\ZapfDingbats.afm'
p2135
aS'E:\\Programmatuur\\WinPython_versions\\WinPython-PyGaze-0.5.1\\python-2.7.3\\lib\\site-packages\\matplotlib\\mpl-data\\fonts\\pdfcorefonts\\Times-BoldItalic.afm'
p2136
aS'E:\\Programmatuur\\WinPython_versions\\WinPython-PyGaze-0.5.1\\python-2.7.3\\lib\\site-packages\\matplotlib\\mpl-data\\fonts\\afm\\putb8a.afm'
p2137
aS'E:\\Programmatuur\\WinPython_versions\\WinPython-PyGaze-0.5.1\\python-2.7.3\\lib\\site-packages\\matplotlib\\mpl-data\\fonts\\afm\\pncb8a.afm'
p2138
aS'E:\\Programmatuur\\WinPython_versions\\WinPython-PyGaze-0.5.1\\python-2.7.3\\lib\\site-packages\\matplotlib\\mpl-data\\fonts\\afm\\phvb8a.afm'
p2139
aS'E:\\Programmatuur\\WinPython_versions\\WinPython-PyGaze-0.5.1\\python-2.7.3\\lib\\site-packages\\matplotlib\\mpl-data\\fonts\\afm\\phvb8an.afm'
p2140
aS'E:\\Programmatuur\\WinPython_versions\\WinPython-PyGaze-0.5.1\\python-2.7.3\\lib\\site-packages\\matplotlib\\mpl-data\\fonts\\pdfcorefonts\\Symbol.afm'
p2141
aS'E:\\Programmatuur\\WinPython_versions\\WinPython-PyGaze-0.5.1\\python-2.7.3\\lib\\site-packages\\matplotlib\\mpl-data\\fonts\\afm\\pzdr.afm'
p2142
aS'E:\\Programmatuur\\WinPython_versions\\WinPython-PyGaze-0.5.1\\python-2.7.3\\lib\\site-packages\\matplotlib\\mpl-data\\fonts\\afm\\psyr.afm'
p2143
aS'E:\\Programmatuur\\WinPython_versions\\WinPython-PyGaze-0.5.1\\python-2.7.3\\lib\\site-packages\\matplotlib\\mpl-data\\fonts\\afm\\ptmb8a.afm'
p2144
aS'E:\\Programmatuur\\WinPython_versions\\WinPython-PyGaze-0.5.1\\python-2.7.3\\lib\\site-packages\\matplotlib\\mpl-data\\fonts\\pdfcorefonts\\Helvetica-Oblique.afm'
p2145
aS'E:\\Programmatuur\\WinPython_versions\\WinPython-PyGaze-0.5.1\\python-2.7.3\\lib\\site-packages\\matplotlib\\mpl-data\\fonts\\afm\\pncr8a.afm'
p2146
aS'E:\\Programmatuur\\WinPython_versions\\WinPython-PyGaze-0.5.1\\python-2.7.3\\lib\\site-packages\\matplotlib\\mpl-data\\fonts\\afm\\phvro8a.afm'
p2147
aS'E:\\Programmatuur\\WinPython_versions\\WinPython-PyGaze-0.5.1\\python-2.7.3\\lib\\site-packages\\matplotlib\\mpl-data\\fonts\\afm\\phvr8an.afm'
p2148
aS'E:\\Programmatuur\\WinPython_versions\\WinPython-PyGaze-0.5.1\\python-2.7.3\\lib\\site-packages\\matplotlib\\mpl-data\\fonts\\afm\\pcrb8a.afm'
p2149
aS'E:\\Programmatuur\\WinPython_versions\\WinPython-PyGaze-0.5.1\\python-2.7.3\\lib\\site-packages\\matplotlib\\mpl-data\\fonts\\pdfcorefonts\\Courier-Bold.afm'
p2150
aS'E:\\Programmatuur\\WinPython_versions\\WinPython-PyGaze-0.5.1\\python-2.7.3\\lib\\site-packages\\matplotlib\\mpl-data\\fonts\\afm\\ptmri8a.afm'
p2151
aS'E:\\Programmatuur\\WinPython_versions\\WinPython-PyGaze-0.5.1\\python-2.7.3\\lib\\site-packages\\matplotlib\\mpl-data\\fonts\\afm\\putr8a.afm'
p2152
aS'E:\\Programmatuur\\WinPython_versions\\WinPython-PyGaze-0.5.1\\python-2.7.3\\lib\\site-packages\\matplotlib\\mpl-data\\fonts\\pdfcorefonts\\Courier.afm'
p2153
aS'E:\\Programmatuur\\WinPython_versions\\WinPython-PyGaze-0.5.1\\python-2.7.3\\lib\\site-packages\\matplotlib\\mpl-data\\fonts\\afm\\pplb8a.afm'
p2154
aS'E:\\Programmatuur\\WinPython_versions\\WinPython-PyGaze-0.5.1\\python-2.7.3\\lib\\site-packages\\matplotlib\\mpl-data\\fonts\\afm\\cmmi10.afm'
p2155
aS'E:\\Programmatuur\\WinPython_versions\\WinPython-PyGaze-0.5.1\\python-2.7.3\\lib\\site-packages\\matplotlib\\mpl-data\\fonts\\afm\\phvbo8an.afm'
p2156
aS'E:\\Programmatuur\\WinPython_versions\\WinPython-PyGaze-0.5.1\\python-2.7.3\\lib\\site-packages\\matplotlib\\mpl-data\\fonts\\afm\\phvlo8a.afm'
p2157
aS'E:\\Programmatuur\\WinPython_versions\\WinPython-PyGaze-0.5.1\\python-2.7.3\\lib\\site-packages\\matplotlib\\mpl-data\\fonts\\pdfcorefonts\\Courier-Oblique.afm'
p2158
aS'E:\\Programmatuur\\WinPython_versions\\WinPython-PyGaze-0.5.1\\python-2.7.3\\lib\\site-packages\\matplotlib\\mpl-data\\fonts\\afm\\pzcmi8a.afm'
p2159
asS'afmlist'
p2160
(lp2161
g7
(g8
g9
NtRp2162
(dp2163
g12
g13
sg14
S'Helvetica'
p2164
sg16
I500
sg17
g13
sg18
g13
sg19
g2098
sg21
g22
sbag7
(g8
g9
NtRp2165
(dp2166
g12
g13
sg14
S'Palatino'
p2167
sg16
I500
sg17
g13
sg18
g13
sg19
g2101
sg21
g22
sbag7
(g8
g9
NtRp2168
(dp2169
g12
g25
sg14
S'Times'
p2170
sg16
I500
sg17
g13
sg18
g13
sg19
g2102
sg21
g22
sbag7
(g8
g9
NtRp2171
(dp2172
g12
g13
sg14
S'Times'
p2173
sg16
I500
sg17
g13
sg18
g13
sg19
g2103
sg21
g22
sbag7
(g8
g9
NtRp2174
(dp2175
g12
g25
sg14
S'Helvetica'
p2176
sg16
I700
sg17
g13
sg18
g13
sg19
g2104
sg21
g22
sbag7
(g8
g9
NtRp2177
(dp2178
g12
g13
sg14
S'ITC Bookman'
p2179
sg16
I200
sg17
g13
sg18
g13
sg19
g2105
sg21
g22
sbag7
(g8
g9
NtRp2180
(dp2181
g12
g13
sg14
S'ITC Bookman'
p2182
sg16
I600
sg17
g13
sg18
g13
sg19
g2106
sg21
g22
sbag7
(g8
g9
NtRp2183
(dp2184
g12
g25
sg14
S'ITC Bookman'
p2185
sg16
I200
sg17
g13
sg18
g13
sg19
g2107
sg21
g22
sbag7
(g8
g9
NtRp2186
(dp2187
g12
g25
sg14
S'Courier'
p2188
sg16
I700
sg17
g13
sg18
g13
sg19
g2108
sg21
g22
sbag7
(g8
g9
NtRp2189
(dp2190
g12
g13
sg14
S'Computer Modern'
p2191
sg16
I500
sg17
g13
sg18
g13
sg19
g2109
sg21
g22
sbag7
(g8
g9
NtRp2192
(dp2193
g12
g13
sg14
S'Helvetica'
p2194
sg16
I500
sg17
g13
sg18
g13
sg19
g2110
sg21
g22
sbag7
(g8
g9
NtRp2195
(dp2196
g12
g25
sg14
S'New Century Schoolbook'
p2197
sg16
I700
sg17
g13
sg18
g13
sg19
g2111
sg21
g22
sbag7
(g8
g9
NtRp2198
(dp2199
g12
g25
sg14
S'ITC Bookman'
p2200
sg16
I600
sg17
g13
sg18
g13
sg19
g2112
sg21
g22
sbag7
(g8
g9
NtRp2201
(dp2202
g12
g25
sg14
S'Helvetica'
p2203
sg16
I700
sg17
g13
sg18
g13
sg19
g2113
sg21
g22
sbag7
(g8
g9
NtRp2204
(dp2205
g12
g25
sg14
S'ITC Avant Garde Gothic'
p2206
sg16
I400
sg17
g13
sg18
g13
sg19
g2114
sg21
g22
sbag7
(g8
g9
NtRp2207
(dp2208
g12
g25
sg14
S'Palatino'
p2209
sg16
I500
sg17
g13
sg18
g13
sg19
g2115
sg21
g22
sbag7
(g8
g9
NtRp2210
(dp2211
g12
g13
sg14
S'Computer Modern'
p2212
sg16
I500
sg17
g13
sg18
g13
sg19
g2116
sg21
g22
sbag7
(g8
g9
NtRp2213
(dp2214
g12
g13
sg14
S'ITC Avant Garde Gothic'
p2215
sg16
I400
sg17
g13
sg18
g13
sg19
g2117
sg21
g22
sbag7
(g8
g9
NtRp2216
(dp2217
g12
g25
sg14
S'Helvetica'
p2218
sg16
I500
sg17
g240
sg18
g13
sg19
g2118
sg21
g22
sbag7
(g8
g9
NtRp2219
(dp2220
g12
g25
sg14
S'Courier'
p2221
sg16
I700
sg17
g13
sg18
g13
sg19
g2119
sg21
g22
sbag7
(g8
g9
NtRp2222
(dp2223
g12
g13
sg14
S'Computer Modern'
p2224
sg16
I500
sg17
g13
sg18
g13
sg19
g2120
sg21
g22
sbag7
(g8
g9
NtRp2225
(dp2226
g12
g25
sg14
S'Palatino'
p2227
sg16
I700
sg17
g13
sg18
g13
sg19
g2121
sg21
g22
sbag7
(g8
g9
NtRp2228
(dp2229
g12
g13
sg14
S'ITC Avant Garde Gothic'
p2230
sg16
I600
sg17
g13
sg18
g13
sg19
g2122
sg21
g22
sbag7
(g8
g9
NtRp2231
(dp2232
g12
g13
sg14
S'Courier'
p2233
sg16
I500
sg17
g13
sg18
g13
sg19
g2123
sg21
g22
sbag7
(g8
g9
NtRp2234
(dp2235
g12
g25
sg14
S'Utopia'
p2236
sg16
I700
sg17
g13
sg18
g13
sg19
g2124
sg21
g22
sbag7
(g8
g9
NtRp2237
(dp2238
g12
g13
sg14
S'Times'
p2239
sg16
I500
sg17
g13
sg18
g13
sg19
g2125
sg21
g22
sbag7
(g8
g9
NtRp2240
(dp2241
g12
g25
sg14
S'Computer Modern'
p2242
sg16
I500
sg17
g13
sg18
g13
sg19
g2126
sg21
g22
sbag7
(g8
g9
NtRp2243
(dp2244
g12
g25
sg14
S'ITC Avant Garde Gothic'
p2245
sg16
I600
sg17
g13
sg18
g13
sg19
g2127
sg21
g22
sbag7
(g8
g9
NtRp2246
(dp2247
g12
g25
sg14
S'Times'
p2248
sg16
I700
sg17
g13
sg18
g13
sg19
g2128
sg21
g22
sbag7
(g8
g9
NtRp2249
(dp2250
g12
g25
sg14
S'Courier'
p2251
sg16
I500
sg17
g13
sg18
g13
sg19
g2129
sg21
g22
sbag7
(g8
g9
NtRp2252
(dp2253
g12
g13
sg14
S'Helvetica'
p2254
sg16
I200
sg17
g13
sg18
g13
sg19
g2130
sg21
g22
sbag7
(g8
g9
NtRp2255
(dp2256
g12
g25
sg14
S'New Century Schoolbook'
p2257
sg16
I500
sg17
g13
sg18
g13
sg19
g2131
sg21
g22
sbag7
(g8
g9
NtRp2258
(dp2259
g12
g25
sg14
S'Utopia'
p2260
sg16
I400
sg17
g13
sg18
g13
sg19
g2132
sg21
g22
sbag7
(g8
g9
NtRp2261
(dp2262
g12
g13
sg14
S'Helvetica'
p2263
sg16
I700
sg17
g13
sg18
g13
sg19
g2133
sg21
g22
sbag7
(g8
g9
NtRp2264
(dp2265
g12
g13
sg14
S'Times'
p2266
sg16
I700
sg17
g13
sg18
g13
sg19
g2134
sg21
g22
sbag7
(g8
g9
NtRp2267
(dp2268
g12
g13
sg14
S'ZapfDingbats'
p2269
sg16
I500
sg17
g13
sg18
g13
sg19
g2135
sg21
g22
sbag7
(g8
g9
NtRp2270
(dp2271
g12
g25
sg14
S'Times'
p2272
sg16
I700
sg17
g13
sg18
g13
sg19
g2136
sg21
g22
sbag7
(g8
g9
NtRp2273
(dp2274
g12
g13
sg14
S'Utopia'
p2275
sg16
I700
sg17
g13
sg18
g13
sg19
g2137
sg21
g22
sbag7
(g8
g9
NtRp2276
(dp2277
g12
g13
sg14
S'New Century Schoolbook'
p2278
sg16
I700
sg17
g13
sg18
g13
sg19
g2138
sg21
g22
sbag7
(g8
g9
NtRp2279
(dp2280
g12
g13
sg14
S'Helvetica'
p2281
sg16
I700
sg17
g13
sg18
g13
sg19
g2139
sg21
g22
sbag7
(g8
g9
NtRp2282
(dp2283
g12
g13
sg14
S'Helvetica'
p2284
sg16
I700
sg17
g240
sg18
g13
sg19
g2140
sg21
g22
sbag7
(g8
g9
NtRp2285
(dp2286
g12
g13
sg14
S'Symbol'
p2287
sg16
I500
sg17
g13
sg18
g13
sg19
g2141
sg21
g22
sbag7
(g8
g9
NtRp2288
(dp2289
g12
g13
sg14
S'ITC Zapf Dingbats'
p2290
sg16
I500
sg17
g13
sg18
g13
sg19
g2142
sg21
g22
sbag7
(g8
g9
NtRp2291
(dp2292
g12
g13
sg14
S'Symbol'
p2293
sg16
I500
sg17
g13
sg18
g13
sg19
g2143
sg21
g22
sbag7
(g8
g9
NtRp2294
(dp2295
g12
g13
sg14
S'Times'
p2296
sg16
I700
sg17
g13
sg18
g13
sg19
g2144
sg21
g22
sbag7
(g8
g9
NtRp2297
(dp2298
g12
g25
sg14
S'Helvetica'
p2299
sg16
I500
sg17
g13
sg18
g13
sg19
g2145
sg21
g22
sbag7
(g8
g9
NtRp2300
(dp2301
g12
g13
sg14
S'New Century Schoolbook'
p2302
sg16
I500
sg17
g13
sg18
g13
sg19
g2146
sg21
g22
sbag7
(g8
g9
NtRp2303
(dp2304
g12
g25
sg14
S'Helvetica'
p2305
sg16
I500
sg17
g13
sg18
g13
sg19
g2147
sg21
g22
sbag7
(g8
g9
NtRp2306
(dp2307
g12
g13
sg14
S'Helvetica'
p2308
sg16
I500
sg17
g240
sg18
g13
sg19
g2148
sg21
g22
sbag7
(g8
g9
NtRp2309
(dp2310
g12
g13
sg14
S'Courier'
p2311
sg16
I700
sg17
g13
sg18
g13
sg19
g2149
sg21
g22
sbag7
(g8
g9
NtRp2312
(dp2313
g12
g13
sg14
S'Courier'
p2314
sg16
I700
sg17
g13
sg18
g13
sg19
g2150
sg21
g22
sbag7
(g8
g9
NtRp2315
(dp2316
g12
g25
sg14
S'Times'
p2317
sg16
I500
sg17
g13
sg18
g13
sg19
g2151
sg21
g22
sbag7
(g8
g9
NtRp2318
(dp2319
g12
g13
sg14
S'Utopia'
p2320
sg16
I400
sg17
g13
sg18
g13
sg19
g2152
sg21
g22
sbag7
(g8
g9
NtRp2321
(dp2322
g12
g13
sg14
S'Courier'
p2323
sg16
I500
sg17
g13
sg18
g13
sg19
g2153
sg21
g22
sbag7
(g8
g9
NtRp2324
(dp2325
g12
g13
sg14
S'Palatino'
p2326
sg16
I700
sg17
g13
sg18
g13
sg19
g2154
sg21
g22
sbag7
(g8
g9
NtRp2327
(dp2328
g12
g25
sg14
S'Computer Modern'
p2329
sg16
I500
sg17
g13
sg18
g13
sg19
g2155
sg21
g22
sbag7
(g8
g9
NtRp2330
(dp2331
g12
g25
sg14
S'Helvetica'
p2332
sg16
I700
sg17
g240
sg18
g13
sg19
g2156
sg21
g22
sbag7
(g8
g9
NtRp2333
(dp2334
g12
g25
sg14
S'Helvetica'
p2335
sg16
I200
sg17
g13
sg18
g13
sg19
g2157
sg21
g22
sbag7
(g8
g9
NtRp2336
(dp2337
g12
g25
sg14
S'Courier'
p2338
sg16
I500
sg17
g13
sg18
g13
sg19
g2158
sg21
g22
sbag7
(g8
g9
NtRp2339
(dp2340
g12
g25
sg14
S'ITC Zapf Chancery'
p2341
sg16
I500
sg17
g13
sg18
g13
sg19
g2159
sg21
g22
sbasb.